Certificate:
    Data:
        Version: 3 (0x2)
        Serial Number:
            5a:3d:2b:ff:37:9b:2d:29:2c:62:55:4f:53:6f:05:b8
    Signature Algorithm: sha512WithRSAEncryption
        Issuer: CN=ProcuraCA
        Validity
            Not Before: Nov 24 12:09:20 2022 GMT
            Not After : Nov 21 12:09:20 2032 GMT
        Subject: CN=remoto33
        Subject Public Key Info:
            Public Key Algorithm: rsaEncryption
                Public-Key: (4096 bit)
                Modulus:
                    00:bd:73:76:27:9c:17:5b:a7:2e:c7:7c:e7:82:60:
                    96:18:92:5e:28:ec:79:f4:84:63:5a:43:9c:a2:b7:
                    41:ca:13:69:dc:2e:1e:ae:b5:d3:fb:8f:14:e1:73:
                    10:b4:6e:cb:8f:d8:11:f2:40:3d:06:d5:ad:a4:73:
                    62:26:43:d4:2f:16:0c:1c:c8:54:93:60:4f:03:2c:
                    ee:dc:c4:a6:0c:0b:ba:a6:56:3b:c9:a7:86:c3:36:
                    2a:8b:6d:5b:aa:66:51:da:34:4b:6e:82:e1:bf:fa:
                    cb:bf:19:9d:f3:dd:13:c9:28:79:d3:82:c8:b5:05:
                    6d:fc:e4:88:95:ba:9d:87:45:19:64:f3:bd:0d:cd:
                    4f:a6:e1:66:c0:14:5f:53:52:56:a5:af:2b:36:06:
                    f0:0d:fa:53:0e:af:20:a9:f4:bb:70:61:d4:49:df:
                    c2:14:49:69:2a:33:ae:09:ff:d9:92:84:a8:b0:c6:
                    d3:8d:2a:d3:16:86:3b:47:7f:cc:dd:c7:8c:08:cd:
                    a0:a8:d1:fe:e1:09:8e:6f:3a:0d:8e:d7:c2:a2:3e:
                    d9:52:d6:22:92:97:f0:66:1a:8f:aa:c6:62:ea:41:
                    79:54:7b:1b:55:a1:d3:c6:41:ce:c2:7a:46:7a:8f:
                    e2:db:cf:ad:46:31:98:3b:1d:76:3e:21:8c:0f:a4:
                    5d:49:bc:74:e7:14:0a:25:12:69:1f:da:e5:d4:6e:
                    70:f5:c5:30:60:91:c4:5e:1f:4a:ba:b5:8f:e6:fc:
                    82:e9:a5:2a:ea:2e:12:c1:9a:ea:2e:8f:c3:0f:3d:
                    f9:37:a5:b5:c0:fe:b2:6a:6e:cf:44:76:b1:56:f1:
                    06:2f:ff:5a:32:3d:29:de:f4:f4:f4:9f:e9:ae:f3:
                    b4:69:23:6f:e4:0c:87:54:08:de:74:91:aa:3c:6f:
                    2d:69:8c:88:c4:3d:41:b5:b5:e8:76:1b:45:24:9d:
                    b2:5f:4d:1d:1a:eb:0d:ed:64:9c:4a:36:a6:ae:08:
                    0a:0f:3a:7e:cb:f8:94:28:fe:59:b6:31:04:f4:7f:
                    36:f4:57:50:b6:ea:20:b5:a1:d3:08:7e:2d:d8:86:
                    6d:39:e9:9e:f9:5b:69:cd:7a:ae:f0:51:2d:76:49:
                    4a:35:63:48:56:10:f2:a5:b3:18:0f:dd:cb:03:65:
                    ff:b9:a9:6b:2f:71:f6:d2:9a:9d:ac:70:53:e4:8d:
                    b0:95:4b:e2:71:06:6c:9c:bb:a0:a7:d3:04:52:ba:
                    76:74:8c:29:cb:c8:74:be:6b:63:c0:49:4c:7a:74:
                    ca:6c:31:22:c6:77:c0:2e:56:48:47:5f:35:e5:f9:
                    73:77:27:e9:25:5e:8e:85:aa:56:48:80:95:58:fb:
                    df:64:a5
                Exponent: 65537 (0x10001)
        X509v3 extensions:
            X509v3 Basic Constraints: 
                CA:FALSE
            X509v3 Subject Key Identifier: 
                1C:E3:FA:8F:89:A5:85:6C:AF:28:F3:3C:17:BB:8B:54:32:25:AF:3D
            X509v3 Authority Key Identifier: 
                keyid:CA:1B:21:9C:1E:6A:07:17:12:46:0D:B8:1B:D0:EA:45:1C:F3:AF:1D
                DirName:/CN=ProcuraCA
                serial:B9:33:96:FE:37:82:C4:FE

            X509v3 Extended Key Usage: 
                TLS Web Client Authentication
            X509v3 Key Usage: 
                Digital Signature
    Signature Algorithm: sha512WithRSAEncryption
         c8:0a:41:24:9e:3e:f4:a8:85:90:5a:b5:9f:dd:40:3b:27:57:
         b7:81:80:26:0c:04:11:21:48:8e:1c:a5:2d:e7:47:e3:14:de:
         89:00:cb:60:fc:b1:8e:03:db:93:14:70:b5:10:78:67:e7:7d:
         35:00:ba:d8:15:00:36:91:65:ac:73:a4:10:a9:e2:b1:6f:19:
         72:4d:0d:33:c1:f9:4b:7d:61:87:fe:01:7b:79:3a:c2:98:b9:
         f4:0b:10:58:e4:aa:c4:72:fb:c4:31:a4:3a:5e:df:7b:b3:7b:
         7e:7e:98:50:1a:63:d6:92:07:30:1d:c6:2a:8c:f9:2c:32:b5:
         56:7a:84:9a:8d:0d:ff:07:c3:16:55:58:88:94:e1:cc:1b:5c:
         25:9e:59:af:b6:71:27:8b:8a:50:72:b2:e0:60:84:fc:11:9d:
         67:3a:ec:99:a5:1b:b9:32:49:52:e5:c4:3f:dd:2f:58:a1:67:
         ae:c8:a2:94:f5:4a:4a:aa:fc:81:bf:7c:0c:2f:7b:5f:4f:87:
         25:c3:b9:c7:3a:22:84:fb:8a:30:0c:0d:f4:26:b4:47:a0:3c:
         d5:00:54:87:0f:35:b0:2d:71:32:92:c9:e3:8d:3e:c7:7a:2e:
         2b:14:8b:8d:42:0a:1f:3c:c7:d3:ce:20:18:65:a1:f7:88:9f:
         e7:17:57:a3:34:0e:ff:99:98:41:06:39:24:75:96:d5:b2:94:
         b6:d2:da:57:1e:bf:fc:08:6a:f8:3c:60:a0:d8:d8:92:93:4c:
         3e:63:4b:2f:1e:a4:fc:9e:c5:16:6e:ff:40:97:6a:ff:dd:dd:
         dd:2d:46:5e:61:b8:ae:f3:9c:fc:eb:e2:22:01:f7:e4:7a:df:
         1e:51:02:73:66:e1:1b:00:3e:23:b2:38:f2:ca:35:a9:5c:6f:
         1f:46:59:0f:75:f6:83:b0:16:71:0b:c6:2b:ec:69:61:78:1b:
         d9:4e:10:8c:7f:68:87:a2:15:81:30:00:bf:71:6e:b1:51:fc:
         27:1d:a5:89:a5:89:69:f9:b6:94:17:7d:52:a2:81:f3:e3:ed:
         c5:c8:c1:dc:ba:d3:27:d0:c8:4d:45:0c:56:72:9d:9f:79:b3:
         0d:e7:8a:ac:1d:c6:07:76:3d:2a:5f:7b:6d:9a:b3:2d:98:23:
         17:59:f9:d8:68:09:d1:fa:62:e7:86:e8:7f:43:88:a7:d2:07:
         79:90:5f:bf:55:61:dc:88:31:2c:6b:f5:6a:8f:2c:af:1b:04:
         db:f1:11:19:c7:d4:e7:b2:0f:fe:a1:d6:3a:4b:97:bd:b0:d8:
         92:06:97:0e:bd:e2:8a:c9:87:d1:f5:13:f3:7c:4b:48:38:1d:
         7a:b5:81:f7:02:41:be:8e
-----BEGIN CERTIFICATE-----
MIIFRzCCAy+gAwIBAgIQWj0r/zebLSksYlVPU28FuDANBgkqhkiG9w0BAQ0FADAU
MRIwEAYDVQQDDAlQcm9jdXJhQ0EwHhcNMjIxMTI0MTIwOTIwWhcNMzIxMTIxMTIw
OTIwWjATMREwDwYDVQQDDAhyZW1vdG8zMzCCAiIwDQYJKoZIhvcNAQEBBQADggIP
ADCCAgoCggIBAL1zdiecF1unLsd854JglhiSXijsefSEY1pDnKK3QcoTadwuHq61
0/uPFOFzELRuy4/YEfJAPQbVraRzYiZD1C8WDBzIVJNgTwMs7tzEpgwLuqZWO8mn
hsM2KottW6pmUdo0S26C4b/6y78ZnfPdE8koedOCyLUFbfzkiJW6nYdFGWTzvQ3N
T6bhZsAUX1NSVqWvKzYG8A36Uw6vIKn0u3Bh1EnfwhRJaSozrgn/2ZKEqLDG040q
0xaGO0d/zN3HjAjNoKjR/uEJjm86DY7XwqI+2VLWIpKX8GYaj6rGYupBeVR7G1Wh
08ZBzsJ6RnqP4tvPrUYxmDsddj4hjA+kXUm8dOcUCiUSaR/a5dRucPXFMGCRxF4f
Srq1j+b8gumlKuouEsGa6i6Pww89+TeltcD+smpuz0R2sVbxBi//WjI9Kd709PSf
6a7ztGkjb+QMh1QI3nSRqjxvLWmMiMQ9QbW16HYbRSSdsl9NHRrrDe1knEo2pq4I
Cg86fsv4lCj+WbYxBPR/NvRXULbqILWh0wh+LdiGbTnpnvlbac16rvBRLXZJSjVj
SFYQ8qWzGA/dywNl/7mpay9x9tKanaxwU+SNsJVL4nEGbJy7oKfTBFK6dnSMKcvI
dL5rY8BJTHp0ymwxIsZ3wC5WSEdfNeX5c3cn6SVejoWqVkiAlVj732SlAgMBAAGj
gZUwgZIwCQYDVR0TBAIwADAdBgNVHQ4EFgQUHOP6j4mlhWyvKPM8F7uLVDIlrz0w
RAYDVR0jBD0wO4AUyhshnB5qBxcSRg24G9DqRRzzrx2hGKQWMBQxEjAQBgNVBAMM
CVByb2N1cmFDQYIJALkzlv43gsT+MBMGA1UdJQQMMAoGCCsGAQUFBwMCMAsGA1Ud
DwQEAwIHgDANBgkqhkiG9w0BAQ0FAAOCAgEAyApBJJ4+9KiFkFq1n91AOydXt4GA
JgwEESFIjhylLedH4xTeiQDLYPyxjgPbkxRwtRB4Z+d9NQC62BUANpFlrHOkEKni
sW8Zck0NM8H5S31hh/4Be3k6wpi59AsQWOSqxHL7xDGkOl7fe7N7fn6YUBpj1pIH
MB3GKoz5LDK1VnqEmo0N/wfDFlVYiJThzBtcJZ5Zr7ZxJ4uKUHKy4GCE/BGdZzrs
maUbuTJJUuXEP90vWKFnrsiilPVKSqr8gb98DC97X0+HJcO5xzoihPuKMAwN9Ca0
R6A81QBUhw81sC1xMpLJ440+x3ouKxSLjUIKHzzH084gGGWh94if5xdXozQO/5mY
QQY5JHWW1bKUttLaVx6//Ahq+DxgoNjYkpNMPmNLLx6k/J7FFm7/QJdq/93d3S1G
XmG4rvOc/OviIgH35HrfHlECc2bhGwA+I7I48so1qVxvH0ZZD3X2g7AWcQvGK+xp
YXgb2U4QjH9oh6IVgTAAv3FusVH8Jx2liaWJafm2lBd9UqKB8+PtxcjB3LrTJ9DI
TUUMVnKdn3mzDeeKrB3GB3Y9Kl97bZqzLZgjF1n52GgJ0fpi54bof0OIp9IHeZBf
v1Vh3IgxLGv1ao8srxsE2/ERGcfU57IP/qHWOkuXvbDYkgaXDr3iismH0fUT83xL
SDgderWB9wJBvo4=
-----END CERTIFICATE-----
