Certificate:
    Data:
        Version: 3 (0x2)
        Serial Number:
            17:e5:c9:88:94:10:b4:c8:ae:4e:99:cc:84:f6:60:e0
    Signature Algorithm: sha512WithRSAEncryption
        Issuer: CN=ProcuraCA
        Validity
            Not Before: Nov 24 13:56:25 2022 GMT
            Not After : Nov 21 13:56:25 2032 GMT
        Subject: CN=remoto37
        Subject Public Key Info:
            Public Key Algorithm: rsaEncryption
                Public-Key: (4096 bit)
                Modulus:
                    00:d3:7a:7a:a5:bb:5b:3d:74:d4:2e:d4:e9:c9:96:
                    f3:c0:65:08:72:3d:1c:aa:94:93:cc:90:74:0b:22:
                    a5:f7:0d:10:fb:e2:29:66:2e:f2:83:37:9a:6d:be:
                    43:be:70:3c:c6:bc:f6:5a:b9:27:cd:f2:14:66:19:
                    da:20:97:9d:79:85:5c:2f:51:02:2d:55:71:a9:2e:
                    3a:76:7a:d2:4c:6a:8c:b1:29:25:f4:3a:78:52:09:
                    8d:96:2d:17:e9:2d:cb:b4:72:f7:d3:f4:34:31:27:
                    8e:15:93:04:66:83:b6:4b:d5:8c:70:2d:66:ce:60:
                    1c:b9:75:3f:0d:a2:52:7b:6a:67:0c:07:d3:f0:91:
                    d6:c9:53:5f:da:05:c1:1a:43:d2:13:4a:c2:00:07:
                    63:fb:fa:ea:02:a6:b8:3b:35:61:a6:fe:05:e0:4b:
                    6b:e2:13:09:93:f4:8d:c0:1e:c6:19:14:6a:c5:a2:
                    87:11:db:68:91:b8:8d:e3:ca:cc:63:aa:68:b1:44:
                    60:9e:ec:fc:a1:df:1b:d3:ed:c1:cc:1c:10:40:d1:
                    e3:81:e5:df:4d:59:bc:a7:80:d0:98:47:70:d4:06:
                    8b:5c:e8:49:a9:ab:94:a1:d6:3e:60:6b:e9:4a:23:
                    02:8d:84:17:dc:7c:f7:09:f2:98:73:7a:2a:8f:67:
                    36:a8:24:9f:ae:3d:b1:72:b7:e3:2a:7e:eb:8b:87:
                    72:bd:66:19:32:9a:2e:ed:d2:12:2d:34:0f:fc:33:
                    12:99:ea:1e:b4:50:65:be:0f:96:6a:24:8d:c7:da:
                    18:5a:00:59:1f:23:6e:4e:52:b9:be:0c:4f:18:e1:
                    ba:23:7b:b5:24:6a:93:76:a2:ed:16:3f:c5:ab:99:
                    7d:ea:34:03:6e:b1:35:2d:70:3f:0e:6d:44:15:57:
                    c5:36:ce:30:90:22:10:2d:45:71:27:d2:5a:1c:1c:
                    7c:40:8e:9d:c5:68:27:41:fb:35:51:99:59:2d:94:
                    d7:41:a7:90:62:8a:1c:d7:43:67:ee:4d:a2:e0:6c:
                    27:3b:cc:e9:9b:73:c1:92:d9:83:01:d4:2a:db:ab:
                    eb:8b:0b:a6:fd:bc:4d:b4:c7:8c:8e:47:ad:ed:a3:
                    05:0a:9f:a8:e5:5c:6f:52:75:5c:91:0e:41:a2:03:
                    25:6b:34:2d:dc:01:ac:08:7f:27:e0:52:61:86:14:
                    9d:06:81:a5:a5:7a:5c:bf:0f:94:a5:8f:48:2b:69:
                    ca:6b:3a:07:f6:5f:aa:6f:4b:63:f3:60:5d:2c:39:
                    b1:5b:0c:ad:76:66:16:76:dc:8b:7f:19:c3:ea:f7:
                    54:50:42:80:37:55:f8:88:34:d8:59:31:b0:6b:40:
                    92:2e:05
                Exponent: 65537 (0x10001)
        X509v3 extensions:
            X509v3 Basic Constraints: 
                CA:FALSE
            X509v3 Subject Key Identifier: 
                BA:17:E3:10:E6:89:E8:9D:09:EA:A1:4F:97:9C:84:FD:15:60:3E:FB
            X509v3 Authority Key Identifier: 
                keyid:CA:1B:21:9C:1E:6A:07:17:12:46:0D:B8:1B:D0:EA:45:1C:F3:AF:1D
                DirName:/CN=ProcuraCA
                serial:B9:33:96:FE:37:82:C4:FE

            X509v3 Extended Key Usage: 
                TLS Web Client Authentication
            X509v3 Key Usage: 
                Digital Signature
    Signature Algorithm: sha512WithRSAEncryption
         32:29:48:d3:14:69:d4:b3:04:8f:f1:cc:0b:37:5a:83:59:d6:
         c7:67:47:20:ae:53:43:68:1b:2f:b5:fd:6c:dd:79:3e:d3:f6:
         c2:1a:cb:20:3a:1a:73:0d:d6:97:df:f8:d3:6d:34:6f:64:38:
         f8:31:87:ab:61:20:5d:f4:81:10:75:ba:3f:88:c9:ab:e4:e1:
         ad:59:e1:38:31:02:c8:34:01:e7:b9:a7:5e:76:47:6f:15:24:
         e3:4c:ab:fc:e1:4a:8e:16:ec:65:e6:ea:82:9b:55:50:3b:f2:
         e0:b2:e5:5d:23:93:db:2d:f1:79:84:a2:7d:5d:0e:db:ed:fd:
         0f:10:85:08:ba:8a:c9:fa:61:f9:13:c5:3a:0c:b1:f9:22:c5:
         4b:dc:fc:c9:c7:90:8e:d0:13:65:35:6c:48:12:08:4e:66:0d:
         79:be:ce:f2:3d:33:7b:1a:1d:6f:4f:13:d9:0b:2b:e2:2f:6a:
         fb:21:0e:e0:9c:2a:bd:ab:b2:a8:a9:ae:e4:1e:0c:04:60:d9:
         59:c3:d5:88:ac:d9:bc:22:b2:7d:47:29:e9:c2:5e:31:af:a3:
         af:f1:23:16:5c:9b:9a:00:e4:77:f1:00:21:67:df:08:fe:c6:
         99:0e:83:d2:d4:23:99:61:ff:18:fe:a3:cb:ba:96:b7:61:ab:
         ba:57:f4:4b:05:c6:3d:e9:72:89:47:32:3f:b3:f6:15:fc:68:
         36:90:ba:63:29:a4:39:34:24:ec:4d:8f:e3:b6:60:fd:f1:4d:
         d5:af:a7:34:29:a4:20:d2:5f:f8:eb:f2:28:d5:ce:41:9d:70:
         7d:b1:6a:1a:62:68:ce:cc:04:52:ec:c6:dd:e0:ff:f7:dd:cf:
         5d:3f:a8:e5:33:15:2d:2d:8d:8c:fb:9f:38:1c:78:ed:38:ca:
         8a:33:f3:d5:59:40:5e:80:dc:95:e4:ef:e9:17:0a:12:a9:de:
         26:30:99:07:60:20:a2:a7:ea:1a:a8:38:5d:bf:af:5d:ad:c4:
         41:c2:87:81:e9:0d:66:56:bd:89:5b:d1:e5:f9:bb:56:b1:0d:
         6c:8d:43:1a:71:67:4a:90:58:84:fb:43:65:41:79:f5:37:11:
         ab:a2:2c:c3:83:4e:02:eb:c8:17:78:1c:e7:29:57:35:d4:c4:
         09:93:66:a6:8c:60:c2:de:bc:22:cf:a6:35:c9:54:c0:26:01:
         a9:02:e5:6c:8e:54:e2:58:ad:d0:6d:31:a2:91:95:21:1f:f4:
         3d:78:3f:a2:72:41:84:dc:73:89:8d:63:13:91:44:57:79:aa:
         71:40:83:a7:b5:60:91:e8:8e:3f:95:7a:4f:31:dd:bf:af:4c:
         e4:06:ae:64:ba:46:88:c0
-----BEGIN CERTIFICATE-----
MIIFRzCCAy+gAwIBAgIQF+XJiJQQtMiuTpnMhPZg4DANBgkqhkiG9w0BAQ0FADAU
MRIwEAYDVQQDDAlQcm9jdXJhQ0EwHhcNMjIxMTI0MTM1NjI1WhcNMzIxMTIxMTM1
NjI1WjATMREwDwYDVQQDDAhyZW1vdG8zNzCCAiIwDQYJKoZIhvcNAQEBBQADggIP
ADCCAgoCggIBANN6eqW7Wz101C7U6cmW88BlCHI9HKqUk8yQdAsipfcNEPviKWYu
8oM3mm2+Q75wPMa89lq5J83yFGYZ2iCXnXmFXC9RAi1VcakuOnZ60kxqjLEpJfQ6
eFIJjZYtF+kty7Ry99P0NDEnjhWTBGaDtkvVjHAtZs5gHLl1Pw2iUntqZwwH0/CR
1slTX9oFwRpD0hNKwgAHY/v66gKmuDs1Yab+BeBLa+ITCZP0jcAexhkUasWihxHb
aJG4jePKzGOqaLFEYJ7s/KHfG9PtwcwcEEDR44Hl301ZvKeA0JhHcNQGi1zoSamr
lKHWPmBr6UojAo2EF9x89wnymHN6Ko9nNqgkn649sXK34yp+64uHcr1mGTKaLu3S
Ei00D/wzEpnqHrRQZb4PlmokjcfaGFoAWR8jbk5Sub4MTxjhuiN7tSRqk3ai7RY/
xauZfeo0A26xNS1wPw5tRBVXxTbOMJAiEC1FcSfSWhwcfECOncVoJ0H7NVGZWS2U
10GnkGKKHNdDZ+5NouBsJzvM6ZtzwZLZgwHUKtur64sLpv28TbTHjI5Hre2jBQqf
qOVcb1J1XJEOQaIDJWs0LdwBrAh/J+BSYYYUnQaBpaV6XL8PlKWPSCtpyms6B/Zf
qm9LY/NgXSw5sVsMrXZmFnbci38Zw+r3VFBCgDdV+Ig02FkxsGtAki4FAgMBAAGj
gZUwgZIwCQYDVR0TBAIwADAdBgNVHQ4EFgQUuhfjEOaJ6J0J6qFPl5yE/RVgPvsw
RAYDVR0jBD0wO4AUyhshnB5qBxcSRg24G9DqRRzzrx2hGKQWMBQxEjAQBgNVBAMM
CVByb2N1cmFDQYIJALkzlv43gsT+MBMGA1UdJQQMMAoGCCsGAQUFBwMCMAsGA1Ud
DwQEAwIHgDANBgkqhkiG9w0BAQ0FAAOCAgEAMilI0xRp1LMEj/HMCzdag1nWx2dH
IK5TQ2gbL7X9bN15PtP2whrLIDoacw3Wl9/40200b2Q4+DGHq2EgXfSBEHW6P4jJ
q+ThrVnhODECyDQB57mnXnZHbxUk40yr/OFKjhbsZebqgptVUDvy4LLlXSOT2y3x
eYSifV0O2+39DxCFCLqKyfph+RPFOgyx+SLFS9z8yceQjtATZTVsSBIITmYNeb7O
8j0zexodb08T2Qsr4i9q+yEO4JwqvauyqKmu5B4MBGDZWcPViKzZvCKyfUcp6cJe
Ma+jr/EjFlybmgDkd/EAIWffCP7GmQ6D0tQjmWH/GP6jy7qWt2Grulf0SwXGPely
iUcyP7P2FfxoNpC6YymkOTQk7E2P47Zg/fFN1a+nNCmkINJf+OvyKNXOQZ1wfbFq
GmJozswEUuzG3eD/993PXT+o5TMVLS2NjPufOBx47TjKijPz1VlAXoDcleTv6RcK
EqneJjCZB2AgoqfqGqg4Xb+vXa3EQcKHgekNZla9iVvR5fm7VrENbI1DGnFnSpBY
hPtDZUF59TcRq6Isw4NOAuvIF3gc5ylXNdTECZNmpoxgwt68Is+mNclUwCYBqQLl
bI5U4lit0G0xopGVIR/0PXg/onJBhNxziY1jE5FEV3mqcUCDp7VgkeiOP5V6TzHd
v69M5AauZLpGiMA=
-----END CERTIFICATE-----
