Certificate:
    Data:
        Version: 3 (0x2)
        Serial Number:
            46:a0:a8:5d:59:61:a5:77:fc:8a:33:62:37:66:48:76
    Signature Algorithm: sha512WithRSAEncryption
        Issuer: CN=ProcuraCA
        Validity
            Not Before: Nov 24 13:57:19 2022 GMT
            Not After : Nov 21 13:57:19 2032 GMT
        Subject: CN=remoto42
        Subject Public Key Info:
            Public Key Algorithm: rsaEncryption
                Public-Key: (4096 bit)
                Modulus:
                    00:b5:13:02:8f:24:a6:b8:0b:a6:37:f5:3c:7e:c4:
                    05:85:a8:84:9d:55:a6:a2:08:cc:80:c4:3c:12:30:
                    5d:25:2d:0d:33:c3:68:92:a4:4e:37:6d:bd:b3:db:
                    34:8f:cc:3d:3f:85:40:58:72:8d:1d:84:62:71:9a:
                    b1:9d:3f:a1:a7:72:1f:62:94:6d:d4:b2:e1:4e:78:
                    05:da:c0:69:74:1d:14:1a:01:85:d6:32:15:52:2b:
                    5f:93:98:2b:e3:d9:15:c6:6c:42:57:1c:36:a0:15:
                    d3:9c:ea:21:52:9b:ae:6b:d7:34:8d:5c:7b:6e:a1:
                    a0:ad:70:a4:eb:86:58:5a:99:55:b2:f9:89:71:2b:
                    8b:ae:60:54:cd:7a:91:4f:3e:89:93:61:de:7d:dc:
                    fb:42:d9:c6:ca:89:eb:b7:e1:3c:ae:8b:9e:ae:83:
                    32:21:f0:6c:2d:b4:02:cc:7b:7a:61:27:2e:1b:37:
                    96:91:03:7b:e7:d0:97:ba:46:61:78:77:76:b5:dc:
                    f6:e0:0e:3d:d1:71:9b:56:3d:fb:37:86:2c:6a:c8:
                    90:d5:fa:03:23:57:e1:51:d5:eb:06:5b:ef:66:a2:
                    7f:2a:4d:93:cb:29:b6:77:eb:63:ab:29:ea:d5:ef:
                    21:88:b8:74:1f:85:d6:6b:21:54:5a:25:68:a9:ad:
                    3d:3c:8d:e1:56:53:a7:27:7b:e0:56:c5:6d:bb:3d:
                    47:1b:65:b9:09:a9:e2:f8:37:ca:ed:41:ce:21:f2:
                    e7:c5:86:39:10:3d:12:11:91:5a:0b:bc:e2:f5:27:
                    95:d3:38:fa:54:dd:c4:d5:c6:7a:0d:5c:79:5a:db:
                    85:6e:f3:d5:af:30:c2:37:15:d3:7a:42:62:9f:92:
                    d1:09:6d:87:5b:3e:bc:64:03:a2:43:0a:a3:56:2a:
                    3b:fa:d3:13:b0:b7:03:42:5d:2c:75:61:bc:b6:9e:
                    c3:6f:f1:6e:38:e3:2d:34:1b:0f:dc:7c:1b:a9:f7:
                    5b:aa:5a:15:fa:21:81:e9:3d:ed:20:59:83:ed:46:
                    63:f0:63:77:cd:35:96:08:e3:ba:ab:01:b6:43:fb:
                    df:ae:48:1a:10:7e:37:4b:78:bf:26:c0:d2:02:68:
                    87:a7:f8:ea:75:8b:d9:16:60:7f:0e:e6:93:7d:01:
                    e3:cb:11:50:eb:f3:7c:60:40:f1:a7:a5:eb:3b:4a:
                    92:06:35:4d:b9:3e:20:71:58:8f:85:ba:1b:58:1c:
                    4c:21:5c:ad:a6:ef:e5:09:47:97:bf:16:9f:c7:eb:
                    44:bb:b6:ec:57:46:0c:4a:7d:12:32:c7:58:e5:b1:
                    77:07:22:a4:61:2c:24:b5:1b:f0:7f:1d:26:c8:5c:
                    30:93:17
                Exponent: 65537 (0x10001)
        X509v3 extensions:
            X509v3 Basic Constraints: 
                CA:FALSE
            X509v3 Subject Key Identifier: 
                81:8F:D3:30:9B:9E:E1:2D:CA:4F:53:55:E2:51:C7:68:63:A9:06:47
            X509v3 Authority Key Identifier: 
                keyid:CA:1B:21:9C:1E:6A:07:17:12:46:0D:B8:1B:D0:EA:45:1C:F3:AF:1D
                DirName:/CN=ProcuraCA
                serial:B9:33:96:FE:37:82:C4:FE

            X509v3 Extended Key Usage: 
                TLS Web Client Authentication
            X509v3 Key Usage: 
                Digital Signature
    Signature Algorithm: sha512WithRSAEncryption
         a9:75:36:02:c3:50:cf:23:59:b6:71:b7:4e:80:03:dc:bc:52:
         26:64:6e:5c:65:db:c0:bf:ee:1a:c5:a1:ef:5d:3e:c5:5f:c0:
         58:d6:51:c7:7f:fb:65:51:fd:fd:40:4a:74:0c:f7:bf:d8:ea:
         28:72:92:ca:51:83:c9:e7:7e:05:46:c5:52:64:ca:b6:f1:74:
         f7:b9:b2:78:11:03:91:cd:c7:a2:7f:a2:fb:85:a8:71:9c:13:
         38:d1:ed:46:2d:5c:26:41:27:c4:0d:34:c4:58:3d:4b:50:1b:
         1e:04:14:5f:14:68:56:a8:3f:bc:52:31:d2:27:c2:96:69:12:
         79:35:0b:92:09:d8:5c:05:1a:be:bf:1e:df:8e:21:06:cf:75:
         3f:1c:c3:0f:f8:eb:af:fa:9f:74:82:aa:28:ef:ad:99:40:91:
         6f:dc:19:37:39:01:7d:30:30:3f:14:ec:bd:f4:3c:e7:e9:4b:
         2c:c9:71:c4:dd:41:da:11:3d:7c:7c:03:02:0c:e3:d7:3b:ec:
         54:9c:50:32:b8:c7:19:4b:25:87:51:87:ed:fe:f1:f5:1d:2f:
         39:59:13:eb:d5:81:0a:fc:6e:d0:54:5e:eb:5d:8a:f6:53:56:
         72:e2:ec:9f:20:5c:e5:fd:77:e8:42:16:3b:35:9b:54:ab:24:
         dd:d3:85:c0:a6:76:f5:d4:de:36:5f:9c:ae:cb:f1:6c:9d:d5:
         c2:08:85:6a:d6:29:2d:9a:10:93:25:e0:a9:5e:69:da:80:65:
         0f:77:db:47:04:cd:12:aa:01:08:46:4f:de:19:36:be:79:ca:
         26:2f:0e:d9:e3:a5:05:91:b1:a3:cb:62:8c:50:0d:e5:33:ad:
         25:ea:9c:56:50:5f:01:bd:cd:b1:76:eb:26:36:43:75:e1:6e:
         a7:38:bf:40:4d:1f:1e:56:da:89:80:4b:97:6c:ed:3e:c4:24:
         44:9c:4d:4b:a1:14:81:17:0e:3a:23:43:e5:6a:fb:3f:1c:56:
         8e:af:78:c2:8f:c7:45:be:e2:00:9c:b5:85:63:75:cb:db:c0:
         e1:8c:90:5e:0d:41:29:c4:9e:25:a8:01:35:a4:d6:43:03:0c:
         d2:77:ce:91:84:6e:14:8f:00:7a:dd:7f:58:63:96:ad:75:b4:
         da:48:d0:85:87:17:14:78:a2:98:0b:4d:ee:68:8e:a9:2a:5e:
         ad:49:44:4a:ab:91:e8:25:bb:14:d9:31:5a:dc:1c:c2:75:44:
         a1:21:74:ec:00:83:36:8f:7a:ea:b2:e9:03:9e:97:14:e4:a7:
         e1:56:66:91:02:bc:b2:21:eb:54:8f:78:b5:91:df:ea:20:6e:
         35:75:50:2b:65:a7:9c:53
-----BEGIN CERTIFICATE-----
MIIFRzCCAy+gAwIBAgIQRqCoXVlhpXf8ijNiN2ZIdjANBgkqhkiG9w0BAQ0FADAU
MRIwEAYDVQQDDAlQcm9jdXJhQ0EwHhcNMjIxMTI0MTM1NzE5WhcNMzIxMTIxMTM1
NzE5WjATMREwDwYDVQQDDAhyZW1vdG80MjCCAiIwDQYJKoZIhvcNAQEBBQADggIP
ADCCAgoCggIBALUTAo8kprgLpjf1PH7EBYWohJ1VpqIIzIDEPBIwXSUtDTPDaJKk
TjdtvbPbNI/MPT+FQFhyjR2EYnGasZ0/oadyH2KUbdSy4U54BdrAaXQdFBoBhdYy
FVIrX5OYK+PZFcZsQlccNqAV05zqIVKbrmvXNI1ce26hoK1wpOuGWFqZVbL5iXEr
i65gVM16kU8+iZNh3n3c+0LZxsqJ67fhPK6Lnq6DMiHwbC20Asx7emEnLhs3lpED
e+fQl7pGYXh3drXc9uAOPdFxm1Y9+zeGLGrIkNX6AyNX4VHV6wZb72aifypNk8sp
tnfrY6sp6tXvIYi4dB+F1mshVFolaKmtPTyN4VZTpyd74FbFbbs9RxtluQmp4vg3
yu1BziHy58WGORA9EhGRWgu84vUnldM4+lTdxNXGeg1ceVrbhW7z1a8wwjcV03pC
Yp+S0Qlth1s+vGQDokMKo1YqO/rTE7C3A0JdLHVhvLaew2/xbjjjLTQbD9x8G6n3
W6paFfohgek97SBZg+1GY/Bjd801lgjjuqsBtkP7365IGhB+N0t4vybA0gJoh6f4
6nWL2RZgfw7mk30B48sRUOvzfGBA8ael6ztKkgY1Tbk+IHFYj4W6G1gcTCFcrabv
5QlHl78Wn8frRLu27FdGDEp9EjLHWOWxdwcipGEsJLUb8H8dJshcMJMXAgMBAAGj
gZUwgZIwCQYDVR0TBAIwADAdBgNVHQ4EFgQUgY/TMJue4S3KT1NV4lHHaGOpBkcw
RAYDVR0jBD0wO4AUyhshnB5qBxcSRg24G9DqRRzzrx2hGKQWMBQxEjAQBgNVBAMM
CVByb2N1cmFDQYIJALkzlv43gsT+MBMGA1UdJQQMMAoGCCsGAQUFBwMCMAsGA1Ud
DwQEAwIHgDANBgkqhkiG9w0BAQ0FAAOCAgEAqXU2AsNQzyNZtnG3ToAD3LxSJmRu
XGXbwL/uGsWh710+xV/AWNZRx3/7ZVH9/UBKdAz3v9jqKHKSylGDyed+BUbFUmTK
tvF097myeBEDkc3Hon+i+4WocZwTONHtRi1cJkEnxA00xFg9S1AbHgQUXxRoVqg/
vFIx0ifClmkSeTULkgnYXAUavr8e344hBs91PxzDD/jrr/qfdIKqKO+tmUCRb9wZ
NzkBfTAwPxTsvfQ85+lLLMlxxN1B2hE9fHwDAgzj1zvsVJxQMrjHGUslh1GH7f7x
9R0vOVkT69WBCvxu0FRe612K9lNWcuLsnyBc5f136EIWOzWbVKsk3dOFwKZ29dTe
Nl+crsvxbJ3VwgiFatYpLZoQkyXgqV5p2oBlD3fbRwTNEqoBCEZP3hk2vnnKJi8O
2eOlBZGxo8tijFAN5TOtJeqcVlBfAb3NsXbrJjZDdeFupzi/QE0fHlbaiYBLl2zt
PsQkRJxNS6EUgRcOOiND5Wr7PxxWjq94wo/HRb7iAJy1hWN1y9vA4YyQXg1BKcSe
JagBNaTWQwMM0nfOkYRuFI8Aet1/WGOWrXW02kjQhYcXFHiimAtN7miOqSperUlE
SquR6CW7FNkxWtwcwnVEoSF07ACDNo966rLpA56XFOSn4VZmkQK8siHrVI94tZHf
6iBuNXVQK2WnnFM=
-----END CERTIFICATE-----
