Certificate:
    Data:
        Version: 3 (0x2)
        Serial Number:
            9a:16:39:a7:a0:4a:53:3e:ca:05:73:db:0f:c6:ca:1e
    Signature Algorithm: sha512WithRSAEncryption
        Issuer: CN=ProcuraCA
        Validity
            Not Before: Nov 24 13:58:08 2022 GMT
            Not After : Nov 21 13:58:08 2032 GMT
        Subject: CN=remoto47
        Subject Public Key Info:
            Public Key Algorithm: rsaEncryption
                Public-Key: (4096 bit)
                Modulus:
                    00:ad:0e:a9:50:50:7a:de:e7:6d:8f:9b:f0:59:bc:
                    fa:bf:32:9f:5f:01:38:f2:4d:35:33:92:b7:95:7e:
                    10:9a:fd:ba:b4:e0:b0:2c:23:29:d2:56:0d:20:43:
                    4a:41:1d:e3:7e:68:1e:75:97:81:6f:ba:69:a7:fd:
                    2e:a0:e4:d6:01:c6:10:32:21:2a:be:bc:bf:73:13:
                    b0:68:5b:74:78:11:79:76:73:d8:45:6a:fa:d4:2e:
                    45:d2:51:7a:5f:f9:8f:83:0c:26:f1:a1:70:21:1b:
                    c6:b1:29:e3:11:2a:20:2f:08:b4:1a:98:ca:b1:d0:
                    8c:46:28:4e:fa:f9:96:fb:ae:07:c9:55:33:83:74:
                    2a:96:3e:94:e6:9f:23:3a:9c:9b:23:ba:23:21:25:
                    11:68:9e:a7:22:97:12:e1:63:02:8c:23:34:ef:9a:
                    44:08:98:32:10:ff:92:93:2d:ac:fc:de:88:c9:dd:
                    2b:dd:77:67:f1:97:9d:0a:0f:61:59:21:0d:56:6d:
                    4b:75:d1:11:ed:95:e2:47:a2:5d:51:6a:36:f6:1c:
                    a4:1b:00:d7:55:43:bf:da:5b:b7:f2:bd:4a:aa:24:
                    84:bc:5b:c4:f6:82:5b:f5:df:ba:ee:4d:41:d8:de:
                    4b:c6:91:d8:c2:a3:da:5b:52:89:ce:c8:f8:db:af:
                    06:be:8f:ac:05:e4:a8:f8:67:cd:b4:a3:57:ac:5e:
                    81:37:7f:8c:a2:66:eb:12:00:f1:1c:28:a1:8f:e1:
                    20:42:30:6d:34:b7:e5:f9:9c:b1:26:54:b9:3c:cc:
                    18:7c:e7:ee:43:b3:6f:d0:95:d2:5c:d7:d6:92:ac:
                    f2:bf:98:ec:77:12:c5:e6:b0:30:be:67:cf:51:e6:
                    4c:f3:98:a6:83:1a:9f:3b:9a:0c:43:c0:5a:23:eb:
                    3d:04:97:42:67:d8:3f:d4:30:91:16:6d:1e:74:55:
                    83:d9:e5:36:6c:90:53:77:7c:c4:04:dc:b1:fc:a1:
                    cd:d3:8b:74:18:ef:93:22:0d:1d:a2:41:9f:55:fd:
                    96:f8:2b:48:b9:ba:63:c1:e9:3b:b0:0c:fd:e2:a8:
                    55:f4:90:d2:db:03:da:c9:d5:07:71:69:6b:3c:b4:
                    b2:f7:72:ac:68:31:19:23:3f:4f:ba:db:93:ef:8a:
                    94:dc:ce:56:fa:bc:08:64:42:8c:10:c3:d7:81:ec:
                    b0:49:64:7b:13:f1:74:97:4a:c2:73:03:77:4c:4f:
                    28:0f:0b:c6:fa:6b:b2:52:a7:b0:29:1f:00:60:9a:
                    00:66:0e:35:42:ac:2d:2c:fc:7e:47:23:50:28:a6:
                    d1:07:35:2b:30:ce:fe:3b:ca:2c:49:ec:23:e1:b5:
                    e0:37:cd
                Exponent: 65537 (0x10001)
        X509v3 extensions:
            X509v3 Basic Constraints: 
                CA:FALSE
            X509v3 Subject Key Identifier: 
                2B:D6:6C:66:0E:19:CB:01:09:26:12:87:6C:14:74:47:01:AD:DC:94
            X509v3 Authority Key Identifier: 
                keyid:CA:1B:21:9C:1E:6A:07:17:12:46:0D:B8:1B:D0:EA:45:1C:F3:AF:1D
                DirName:/CN=ProcuraCA
                serial:B9:33:96:FE:37:82:C4:FE

            X509v3 Extended Key Usage: 
                TLS Web Client Authentication
            X509v3 Key Usage: 
                Digital Signature
    Signature Algorithm: sha512WithRSAEncryption
         06:6e:f9:3e:e1:a5:f4:ca:8f:8c:bc:a9:c2:e8:16:87:a6:ea:
         2e:93:92:a1:8a:a5:ce:80:89:b6:e9:14:c2:d1:17:b5:11:8c:
         a6:08:57:74:7d:7a:62:08:ca:c0:88:93:c4:25:5c:0f:d4:7f:
         6a:ef:1c:14:bf:6f:1c:1e:a2:2b:de:7b:c6:c1:47:54:ea:3f:
         0e:f0:a9:ef:7f:e0:94:5d:d0:27:69:fa:17:44:8e:70:17:41:
         de:99:41:77:61:82:cb:11:ed:ae:2b:8d:7c:96:ef:6d:29:90:
         cd:0e:53:9d:48:63:d9:62:46:93:4b:e1:aa:3b:7b:52:0a:e9:
         61:4a:c9:2f:1e:11:d6:47:81:43:cd:c8:2d:81:0a:27:23:1e:
         25:8c:e3:a2:29:7b:4d:50:95:e3:0f:fe:7f:dc:d5:93:8c:a5:
         8f:1c:09:5e:22:ea:14:9d:67:15:a0:38:59:c7:56:3c:82:1d:
         8d:5a:7c:5d:32:f0:a0:fd:42:3d:ac:0e:74:55:94:33:de:9b:
         04:5b:39:4c:d4:14:a2:5d:6f:44:50:c5:42:66:df:64:45:68:
         35:00:29:7a:2d:c1:ce:1e:6d:a3:e6:a0:fe:f6:ab:8c:20:30:
         7f:29:35:0f:78:fe:49:6a:24:de:ab:55:39:9e:3a:c2:d2:8d:
         f1:89:52:3f:cb:2c:5e:ee:af:49:6d:a2:28:1a:f0:97:e2:4b:
         b0:f9:89:1f:21:cd:1f:7d:22:b6:09:b4:a8:47:be:3e:b1:16:
         8f:a3:99:6c:5c:e1:9f:27:d9:ff:02:4a:59:ef:2b:c7:1e:cf:
         7c:9a:b4:0d:6e:ae:11:6a:93:26:3b:97:43:31:46:ae:7d:a7:
         ed:ba:8f:01:ce:92:f0:10:d1:1f:c4:66:97:95:0a:ad:b7:5e:
         9c:8b:b1:f1:74:ed:5e:a1:ae:e9:87:4c:ab:1a:aa:44:80:4c:
         f6:80:8c:31:de:d1:17:bf:f1:00:0d:82:26:22:62:01:c9:d6:
         d5:b8:19:fc:73:01:a4:d7:ad:2c:37:5d:2b:0c:29:b9:70:ce:
         ff:44:26:c7:6c:47:e9:a2:e7:54:b1:0a:f2:28:16:a6:c4:20:
         63:0c:57:7c:f6:bb:a5:de:96:6a:fc:ae:86:28:de:a3:9a:26:
         eb:df:e7:43:24:97:e0:20:4f:88:06:7a:e0:bb:a9:a3:bb:15:
         a4:4f:86:9f:0d:c6:ef:3b:12:23:f7:11:52:c6:3c:99:8d:3f:
         c1:c8:df:5c:08:19:b7:2d:9a:c6:8d:31:d7:88:99:a6:0b:59:
         1d:20:37:fd:c6:a8:88:f2:5d:94:71:13:11:81:d0:1a:96:25:
         16:58:00:7b:e3:df:2a:48
-----BEGIN CERTIFICATE-----
MIIFSDCCAzCgAwIBAgIRAJoWOaegSlM+ygVz2w/Gyh4wDQYJKoZIhvcNAQENBQAw
FDESMBAGA1UEAwwJUHJvY3VyYUNBMB4XDTIyMTEyNDEzNTgwOFoXDTMyMTEyMTEz
NTgwOFowEzERMA8GA1UEAwwIcmVtb3RvNDcwggIiMA0GCSqGSIb3DQEBAQUAA4IC
DwAwggIKAoICAQCtDqlQUHre522Pm/BZvPq/Mp9fATjyTTUzkreVfhCa/bq04LAs
IynSVg0gQ0pBHeN+aB51l4Fvummn/S6g5NYBxhAyISq+vL9zE7BoW3R4EXl2c9hF
avrULkXSUXpf+Y+DDCbxoXAhG8axKeMRKiAvCLQamMqx0IxGKE76+Zb7rgfJVTOD
dCqWPpTmnyM6nJsjuiMhJRFonqcilxLhYwKMIzTvmkQImDIQ/5KTLaz83ojJ3Svd
d2fxl50KD2FZIQ1WbUt10RHtleJHol1Rajb2HKQbANdVQ7/aW7fyvUqqJIS8W8T2
glv137ruTUHY3kvGkdjCo9pbUonOyPjbrwa+j6wF5Kj4Z820o1esXoE3f4yiZusS
APEcKKGP4SBCMG00t+X5nLEmVLk8zBh85+5Ds2/QldJc19aSrPK/mOx3EsXmsDC+
Z89R5kzzmKaDGp87mgxDwFoj6z0El0Jn2D/UMJEWbR50VYPZ5TZskFN3fMQE3LH8
oc3Ti3QY75MiDR2iQZ9V/Zb4K0i5umPB6TuwDP3iqFX0kNLbA9rJ1QdxaWs8tLL3
cqxoMRkjP0+625PvipTczlb6vAhkQowQw9eB7LBJZHsT8XSXSsJzA3dMTygPC8b6
a7JSp7ApHwBgmgBmDjVCrC0s/H5HI1AoptEHNSswzv47yixJ7CPhteA3zQIDAQAB
o4GVMIGSMAkGA1UdEwQCMAAwHQYDVR0OBBYEFCvWbGYOGcsBCSYSh2wUdEcBrdyU
MEQGA1UdIwQ9MDuAFMobIZweagcXEkYNuBvQ6kUc868doRikFjAUMRIwEAYDVQQD
DAlQcm9jdXJhQ0GCCQC5M5b+N4LE/jATBgNVHSUEDDAKBggrBgEFBQcDAjALBgNV
HQ8EBAMCB4AwDQYJKoZIhvcNAQENBQADggIBAAZu+T7hpfTKj4y8qcLoFoem6i6T
kqGKpc6AibbpFMLRF7URjKYIV3R9emIIysCIk8QlXA/Uf2rvHBS/bxweoivee8bB
R1TqPw7wqe9/4JRd0Cdp+hdEjnAXQd6ZQXdhgssR7a4rjXyW720pkM0OU51IY9li
RpNL4ao7e1IK6WFKyS8eEdZHgUPNyC2BCicjHiWM46Ipe01QleMP/n/c1ZOMpY8c
CV4i6hSdZxWgOFnHVjyCHY1afF0y8KD9Qj2sDnRVlDPemwRbOUzUFKJdb0RQxUJm
32RFaDUAKXotwc4ebaPmoP72q4wgMH8pNQ94/klqJN6rVTmeOsLSjfGJUj/LLF7u
r0ltoiga8JfiS7D5iR8hzR99IrYJtKhHvj6xFo+jmWxc4Z8n2f8CSlnvK8cez3ya
tA1urhFqkyY7l0MxRq59p+26jwHOkvAQ0R/EZpeVCq23XpyLsfF07V6hrumHTKsa
qkSATPaAjDHe0Re/8QANgiYiYgHJ1tW4GfxzAaTXrSw3XSsMKblwzv9EJsdsR+mi
51SxCvIoFqbEIGMMV3z2u6Xelmr8roYo3qOaJuvf50Mkl+AgT4gGeuC7qaO7FaRP
hp8Nxu87EiP3EVLGPJmNP8HI31wIGbctmsaNMdeImaYLWR0gN/3GqIjyXZRxExGB
0BqWJRZYAHvj3ypI
-----END CERTIFICATE-----
