Certificate:
    Data:
        Version: 3 (0x2)
        Serial Number:
            04:76:c3:da:a0:90:27:f9:b1:25:ba:cd:e9:29:85:cf
    Signature Algorithm: sha512WithRSAEncryption
        Issuer: CN=ProcuraCA
        Validity
            Not Before: Nov 24 13:57:10 2022 GMT
            Not After : Nov 21 13:57:10 2032 GMT
        Subject: CN=remoto41
        Subject Public Key Info:
            Public Key Algorithm: rsaEncryption
                Public-Key: (4096 bit)
                Modulus:
                    00:b2:d7:86:b8:b2:af:f5:15:23:37:69:1b:9b:dc:
                    ec:eb:2d:83:fb:69:4f:8b:33:08:6f:11:16:2c:3e:
                    50:f7:78:25:4d:7c:3d:9f:f6:3a:85:c4:f7:50:b7:
                    ec:db:2a:e8:35:9a:ca:01:2b:cc:7e:bf:12:aa:89:
                    e3:6c:a2:ea:a8:d1:23:c6:2e:e5:f0:75:99:e5:53:
                    15:ef:8e:1c:ca:00:c4:4a:68:af:57:2a:6a:b5:af:
                    eb:73:bd:5c:83:fc:c0:29:57:d8:64:dc:72:31:5a:
                    b6:f8:7e:e4:04:ce:2b:9d:ec:5d:ab:b2:12:df:94:
                    54:c1:6d:bc:b4:ff:a7:5e:c4:13:9d:32:c9:77:c4:
                    0e:9d:05:30:7c:e5:9f:c1:1e:0b:c0:b9:7a:aa:a3:
                    8e:12:b3:2e:da:ae:cf:2e:3b:04:2d:34:ae:6b:62:
                    03:55:e3:7d:ce:02:78:aa:03:85:3e:49:f2:90:ee:
                    3a:83:ac:69:b2:a0:29:1f:48:93:4f:19:b3:4c:73:
                    40:db:12:eb:00:ae:22:94:a6:15:f8:6f:85:18:99:
                    be:ba:70:93:48:6e:09:99:cb:57:a0:37:69:db:c7:
                    a8:29:e1:81:6e:41:d0:30:14:05:8a:7e:71:a9:5c:
                    04:0f:cb:64:b9:7e:74:71:b2:d2:66:fe:55:c9:78:
                    9e:be:39:04:c4:86:fa:9f:fb:29:98:01:11:8b:a8:
                    b1:4a:bb:26:fe:de:eb:cb:c7:eb:cb:c9:1c:96:b0:
                    00:fe:b2:e4:a6:17:27:76:d8:2d:41:16:10:12:37:
                    de:2a:99:b2:99:97:54:12:95:e3:16:99:c1:65:e7:
                    10:2e:1c:47:30:64:18:e0:d6:7a:01:7a:51:90:4a:
                    32:c5:72:95:f1:dc:ab:d8:9c:f8:1e:48:b2:57:0b:
                    a2:21:08:a7:b0:39:40:98:f9:06:2a:22:e0:a1:ab:
                    61:fe:55:78:b0:04:2d:5b:6b:49:ab:ff:55:3e:d6:
                    45:c4:e3:3f:38:58:66:0e:00:e1:79:9b:3f:a8:0f:
                    11:73:7d:f9:5d:64:40:cd:2d:fc:c3:76:81:34:8f:
                    2f:01:1a:6a:3c:61:81:58:52:dd:4b:4b:c8:ec:94:
                    fc:f7:9f:85:68:a9:ab:3e:98:e1:6a:95:c9:98:03:
                    75:15:2b:28:31:27:b2:a4:30:7c:6d:53:e7:cc:d3:
                    95:39:23:55:be:e7:f4:a0:81:a9:29:56:95:40:72:
                    ce:2e:36:18:0a:89:d4:95:60:b3:04:38:e5:47:77:
                    23:07:97:b8:9e:3c:79:3a:9b:54:c2:d6:9a:4c:ea:
                    60:73:0c:83:2b:ec:14:5e:77:e6:ca:e4:d5:87:f6:
                    7a:1a:af
                Exponent: 65537 (0x10001)
        X509v3 extensions:
            X509v3 Basic Constraints: 
                CA:FALSE
            X509v3 Subject Key Identifier: 
                9D:19:81:81:E0:10:AA:F0:FB:58:D6:81:82:94:71:0E:56:B5:52:D6
            X509v3 Authority Key Identifier: 
                keyid:CA:1B:21:9C:1E:6A:07:17:12:46:0D:B8:1B:D0:EA:45:1C:F3:AF:1D
                DirName:/CN=ProcuraCA
                serial:B9:33:96:FE:37:82:C4:FE

            X509v3 Extended Key Usage: 
                TLS Web Client Authentication
            X509v3 Key Usage: 
                Digital Signature
    Signature Algorithm: sha512WithRSAEncryption
         8b:46:f7:e1:66:61:28:57:8b:79:80:71:a1:56:66:5f:77:3c:
         30:d9:9c:80:21:65:42:c7:1c:fc:3a:e1:9b:29:7c:64:c3:ed:
         cb:db:2b:43:8a:57:92:71:65:7b:3c:9f:e2:96:b3:6a:86:20:
         c1:70:3a:e0:cd:03:3b:e5:0c:31:70:3c:a1:97:7e:17:e7:8f:
         4e:4c:36:17:8d:41:65:b7:7e:ec:f9:88:d3:f2:2e:4a:8e:84:
         f1:c6:f3:6b:78:b7:96:9a:c9:43:16:68:a6:32:b0:23:f2:3a:
         87:b7:e2:15:42:a5:48:b1:25:f8:c0:23:aa:f5:db:0a:dc:fb:
         41:b8:cd:e3:56:d5:da:db:89:97:f4:e8:19:b8:d5:6f:6e:27:
         f6:d0:6a:7e:90:95:d4:1e:0b:01:72:4f:b1:19:a1:9f:ff:d7:
         5f:be:bd:b6:a6:a8:4d:d1:80:61:30:05:34:80:e4:01:4b:f8:
         7e:b9:4a:0c:a7:60:b6:c4:e0:4a:90:34:07:30:af:de:5c:b4:
         10:f4:a8:8e:18:25:9e:04:90:e4:0e:15:62:68:9a:64:b4:ac:
         b7:6d:ef:c7:c9:1b:1a:9c:a6:0e:12:32:9a:69:ac:59:37:c2:
         30:86:25:10:09:10:1a:f4:bd:74:2c:ee:bd:bc:b6:d4:c6:aa:
         00:87:53:71:94:73:22:ca:16:47:5e:04:84:04:ad:a4:4d:d8:
         a8:25:97:50:c8:ef:34:2c:24:96:6b:1f:38:3e:1e:34:c9:a1:
         d6:ac:2d:a5:be:c6:51:be:44:c1:15:55:45:e8:24:07:18:b8:
         92:a8:01:a5:9c:b2:b9:de:3f:5c:0e:35:9a:d5:12:0c:c6:2f:
         8b:b7:3a:de:48:56:36:54:74:34:37:51:71:dd:01:ff:d0:cf:
         d5:fc:b6:9a:91:50:f1:1c:27:54:ca:1d:ff:61:2b:2f:d9:91:
         e6:58:ad:c5:b5:fc:b9:ef:45:77:7f:50:b0:83:b3:b0:40:21:
         f3:61:a0:6e:e1:4a:7f:07:6b:1a:c8:15:c0:c9:03:7a:26:28:
         26:02:b8:42:53:5d:55:eb:8c:82:0b:cf:e1:55:ee:57:94:11:
         d0:fe:f3:56:6f:bc:83:d6:2c:3c:a4:0a:4c:fb:02:1d:95:57:
         f3:76:6d:0d:08:0d:0b:51:8e:44:31:52:08:65:ed:aa:c2:c7:
         2a:d2:5f:f1:6b:65:ab:04:ac:e7:65:9c:32:11:e5:99:80:3e:
         17:8e:2f:05:ff:72:9c:db:1f:8d:cf:15:35:58:cb:08:68:01:
         b8:a7:55:ee:2a:1d:e5:36:90:f6:26:b1:ec:e4:35:dc:c9:4e:
         0e:23:d8:8f:12:96:30:24
-----BEGIN CERTIFICATE-----
MIIFRzCCAy+gAwIBAgIQBHbD2qCQJ/mxJbrN6SmFzzANBgkqhkiG9w0BAQ0FADAU
MRIwEAYDVQQDDAlQcm9jdXJhQ0EwHhcNMjIxMTI0MTM1NzEwWhcNMzIxMTIxMTM1
NzEwWjATMREwDwYDVQQDDAhyZW1vdG80MTCCAiIwDQYJKoZIhvcNAQEBBQADggIP
ADCCAgoCggIBALLXhriyr/UVIzdpG5vc7Ostg/tpT4szCG8RFiw+UPd4JU18PZ/2
OoXE91C37Nsq6DWaygErzH6/EqqJ42yi6qjRI8Yu5fB1meVTFe+OHMoAxEpor1cq
arWv63O9XIP8wClX2GTccjFatvh+5ATOK53sXauyEt+UVMFtvLT/p17EE50yyXfE
Dp0FMHzln8EeC8C5eqqjjhKzLtquzy47BC00rmtiA1Xjfc4CeKoDhT5J8pDuOoOs
abKgKR9Ik08Zs0xzQNsS6wCuIpSmFfhvhRiZvrpwk0huCZnLV6A3advHqCnhgW5B
0DAUBYp+calcBA/LZLl+dHGy0mb+Vcl4nr45BMSG+p/7KZgBEYuosUq7Jv7e68vH
68vJHJawAP6y5KYXJ3bYLUEWEBI33iqZspmXVBKV4xaZwWXnEC4cRzBkGODWegF6
UZBKMsVylfHcq9ic+B5IslcLoiEIp7A5QJj5Bioi4KGrYf5VeLAELVtrSav/VT7W
RcTjPzhYZg4A4XmbP6gPEXN9+V1kQM0t/MN2gTSPLwEaajxhgVhS3UtLyOyU/Pef
hWipqz6Y4WqVyZgDdRUrKDEnsqQwfG1T58zTlTkjVb7n9KCBqSlWlUByzi42GAqJ
1JVgswQ45Ud3IweXuJ48eTqbVMLWmkzqYHMMgyvsFF535srk1Yf2ehqvAgMBAAGj
gZUwgZIwCQYDVR0TBAIwADAdBgNVHQ4EFgQUnRmBgeAQqvD7WNaBgpRxDla1UtYw
RAYDVR0jBD0wO4AUyhshnB5qBxcSRg24G9DqRRzzrx2hGKQWMBQxEjAQBgNVBAMM
CVByb2N1cmFDQYIJALkzlv43gsT+MBMGA1UdJQQMMAoGCCsGAQUFBwMCMAsGA1Ud
DwQEAwIHgDANBgkqhkiG9w0BAQ0FAAOCAgEAi0b34WZhKFeLeYBxoVZmX3c8MNmc
gCFlQscc/Drhmyl8ZMPty9srQ4pXknFlezyf4pazaoYgwXA64M0DO+UMMXA8oZd+
F+ePTkw2F41BZbd+7PmI0/IuSo6E8cbza3i3lprJQxZopjKwI/I6h7fiFUKlSLEl
+MAjqvXbCtz7QbjN41bV2tuJl/ToGbjVb24n9tBqfpCV1B4LAXJPsRmhn//XX769
tqaoTdGAYTAFNIDkAUv4frlKDKdgtsTgSpA0BzCv3ly0EPSojhglngSQ5A4VYmia
ZLSst23vx8kbGpymDhIymmmsWTfCMIYlEAkQGvS9dCzuvby21MaqAIdTcZRzIsoW
R14EhAStpE3YqCWXUMjvNCwklmsfOD4eNMmh1qwtpb7GUb5EwRVVRegkBxi4kqgB
pZyyud4/XA41mtUSDMYvi7c63khWNlR0NDdRcd0B/9DP1fy2mpFQ8RwnVMod/2Er
L9mR5litxbX8ue9Fd39QsIOzsEAh82GgbuFKfwdrGsgVwMkDeiYoJgK4QlNdVeuM
ggvP4VXuV5QR0P7zVm+8g9YsPKQKTPsCHZVX83ZtDQgNC1GORDFSCGXtqsLHKtJf
8WtlqwSs52WcMhHlmYA+F44vBf9ynNsfjc8VNVjLCGgBuKdV7iod5TaQ9iax7OQ1
3MlODiPYjxKWMCQ=
-----END CERTIFICATE-----
