Certificate:
    Data:
        Version: 3 (0x2)
        Serial Number:
            60:7e:2f:8b:46:cc:06:eb:3e:68:e8:bb:3e:a2:47:8e
    Signature Algorithm: sha512WithRSAEncryption
        Issuer: CN=ProcuraCA
        Validity
            Not Before: Nov 24 13:58:16 2022 GMT
            Not After : Nov 21 13:58:16 2032 GMT
        Subject: CN=remoto48
        Subject Public Key Info:
            Public Key Algorithm: rsaEncryption
                Public-Key: (4096 bit)
                Modulus:
                    00:c4:cf:95:be:50:a5:94:2f:25:52:36:8d:3f:f1:
                    a4:4d:c0:e7:9d:90:9b:0e:30:b9:77:56:51:ba:4f:
                    ad:34:f2:01:dc:f4:f4:61:3a:16:08:53:bf:2c:0f:
                    8e:a0:a0:af:bc:f3:5b:85:b7:1a:ed:46:6b:41:b4:
                    24:08:ed:56:aa:ce:a3:f9:a8:93:26:15:e7:b0:8d:
                    03:18:7a:d4:4b:74:d9:e6:02:61:2b:6f:d0:68:42:
                    e1:39:47:cd:e2:06:a1:a8:54:b8:ec:c8:bb:06:f1:
                    68:a5:e6:73:97:b7:05:5e:9a:cd:fc:f6:23:8c:6b:
                    91:d1:71:f3:81:25:55:96:04:e0:fe:44:ca:8c:67:
                    da:62:35:3c:4a:cf:3f:5a:8b:77:b1:84:e2:16:f0:
                    d5:98:d3:a0:95:36:0b:1f:80:83:f4:01:79:78:9c:
                    e5:e5:d9:b2:79:f0:e6:5d:00:6a:d7:c5:c0:7a:b5:
                    e2:a3:0b:af:8e:5f:e7:ae:52:43:a3:cf:82:bc:e4:
                    c9:39:18:75:64:e2:01:1a:ca:0b:01:b6:73:ac:9a:
                    e9:8a:80:5b:47:49:d8:f7:9b:cf:de:bb:54:1a:87:
                    04:c6:6d:eb:4e:a9:e6:8d:62:4f:2e:4d:da:6a:ba:
                    e5:39:f6:8a:ae:47:f9:97:53:ac:fa:7e:83:7b:54:
                    a7:5c:ca:20:b0:fb:a7:22:8c:2b:10:f1:bb:81:ab:
                    d0:30:29:02:87:75:01:cc:09:73:8a:ba:04:a1:f3:
                    7e:4e:18:12:81:1d:05:64:ff:a5:a3:dd:ca:5f:56:
                    48:bc:27:f1:a3:3f:dd:79:b6:d7:bd:7a:8b:60:fb:
                    a2:e9:e8:bf:4a:c0:08:e1:78:10:6e:29:75:03:34:
                    31:df:c2:20:4e:47:da:a0:cb:1c:1b:7a:2e:f7:0e:
                    72:1a:43:67:74:13:d2:04:1d:cb:63:02:d7:e0:86:
                    a1:5f:e7:18:c3:13:0d:b5:46:f7:3f:85:9f:33:82:
                    ee:a2:64:d4:02:b0:06:2e:16:34:d8:0e:4d:68:ef:
                    9e:78:07:9b:f1:e6:83:6f:11:e1:bf:6e:61:5c:3d:
                    d0:5a:66:a1:73:f1:58:fe:38:33:96:8c:8b:f1:91:
                    7a:dc:46:ed:22:47:8f:e6:af:b0:82:5c:a6:84:9e:
                    8f:c2:28:05:6c:b3:f4:fc:65:0e:b3:0b:82:2d:68:
                    04:c3:b1:27:23:ca:4f:7b:da:3b:fa:ac:36:be:18:
                    00:95:10:7d:80:e3:98:83:ab:e8:2d:d3:d5:6b:d5:
                    5c:2e:ec:fb:f5:50:fb:ea:54:59:bf:44:f2:27:30:
                    38:44:10:6a:19:aa:56:ec:01:dd:d9:21:e8:d7:c1:
                    fe:a0:ef
                Exponent: 65537 (0x10001)
        X509v3 extensions:
            X509v3 Basic Constraints: 
                CA:FALSE
            X509v3 Subject Key Identifier: 
                8E:0B:67:53:39:B0:FB:08:D7:2E:6C:7B:AA:73:40:CA:E5:58:9C:6E
            X509v3 Authority Key Identifier: 
                keyid:CA:1B:21:9C:1E:6A:07:17:12:46:0D:B8:1B:D0:EA:45:1C:F3:AF:1D
                DirName:/CN=ProcuraCA
                serial:B9:33:96:FE:37:82:C4:FE

            X509v3 Extended Key Usage: 
                TLS Web Client Authentication
            X509v3 Key Usage: 
                Digital Signature
    Signature Algorithm: sha512WithRSAEncryption
         66:27:60:a4:dd:64:72:45:28:c0:d5:2c:94:5c:46:77:e1:dc:
         27:ad:e6:43:30:38:cb:c8:99:f6:d6:e4:29:35:eb:1c:bc:a7:
         88:1d:15:28:84:57:38:c1:3d:c5:50:31:89:00:8a:48:47:37:
         09:c0:c3:f5:45:97:56:f7:e0:3b:7b:3f:7e:e4:94:2b:64:34:
         c6:59:dd:80:40:40:1b:e3:28:fc:13:e5:6e:05:12:00:af:d0:
         7e:f7:3c:b6:38:46:f3:7e:92:28:52:74:a9:13:2b:e1:1f:d7:
         a0:65:f2:56:14:7e:58:fa:f0:2b:86:69:8e:05:fc:38:24:5d:
         e4:c8:f4:d1:d0:90:76:7f:94:fa:4b:17:d7:65:de:04:50:b4:
         02:4c:00:3b:74:a1:9d:a0:b0:1f:56:01:4f:82:64:74:e4:5d:
         a6:37:0b:70:2b:7c:c9:11:77:6c:af:84:b4:40:26:da:6c:4f:
         61:d7:d8:ca:ff:a2:95:e6:21:a4:73:88:93:51:e0:6f:a4:1c:
         6d:27:8f:46:38:c3:ae:65:f4:0f:87:65:07:5b:65:63:c1:86:
         31:75:07:9a:16:fd:05:bc:b0:fd:aa:04:55:9f:1e:78:15:5c:
         cd:be:fa:1d:d9:e7:a2:4b:c5:da:03:49:8d:c7:26:23:fe:3b:
         b4:9a:72:36:df:5f:c0:5a:e2:a7:81:bc:bc:08:e0:ac:1c:12:
         ec:a9:cc:ed:09:2b:35:24:4d:91:64:6a:03:65:93:ac:23:fa:
         fb:5b:6c:04:9f:2f:19:8b:bb:d5:f2:4d:93:37:4e:96:b8:c4:
         f0:45:16:80:96:59:5b:2c:6e:86:79:05:00:bc:f2:31:6d:1c:
         cb:c1:d5:b8:1d:d7:a5:ff:cd:42:74:b5:0c:c4:71:cb:6a:da:
         1c:aa:6f:30:a7:4b:ff:88:e3:bb:a5:6b:46:21:22:5b:88:4e:
         d9:5f:89:a3:6b:53:de:21:5d:14:a2:63:73:0a:01:ab:72:49:
         df:8d:6e:d5:27:a9:52:44:83:ae:b5:4b:c1:dd:76:8b:06:1a:
         76:34:53:15:fd:93:b4:d6:ea:9c:ee:83:78:34:59:39:34:55:
         6d:cb:0f:1d:08:08:67:57:aa:be:dd:bc:2e:a5:ad:8e:e7:d9:
         67:8f:17:bf:50:21:e3:24:af:b4:4d:c8:64:11:65:c7:f7:7f:
         5a:d9:ac:12:c6:b2:45:ea:02:29:81:35:7e:f3:50:68:82:76:
         c9:86:9e:be:89:d8:4a:75:b8:5e:49:46:a0:d3:8a:19:16:c7:
         a2:42:fd:77:56:79:f4:42:18:d4:7d:a0:05:da:a2:67:af:bd:
         e3:51:52:e1:dd:1b:21:3c
-----BEGIN CERTIFICATE-----
MIIFRzCCAy+gAwIBAgIQYH4vi0bMBus+aOi7PqJHjjANBgkqhkiG9w0BAQ0FADAU
MRIwEAYDVQQDDAlQcm9jdXJhQ0EwHhcNMjIxMTI0MTM1ODE2WhcNMzIxMTIxMTM1
ODE2WjATMREwDwYDVQQDDAhyZW1vdG80ODCCAiIwDQYJKoZIhvcNAQEBBQADggIP
ADCCAgoCggIBAMTPlb5QpZQvJVI2jT/xpE3A552Qmw4wuXdWUbpPrTTyAdz09GE6
FghTvywPjqCgr7zzW4W3Gu1Ga0G0JAjtVqrOo/mokyYV57CNAxh61Et02eYCYStv
0GhC4TlHzeIGoahUuOzIuwbxaKXmc5e3BV6azfz2I4xrkdFx84ElVZYE4P5Eyoxn
2mI1PErPP1qLd7GE4hbw1ZjToJU2Cx+Ag/QBeXic5eXZsnnw5l0AatfFwHq14qML
r45f565SQ6PPgrzkyTkYdWTiARrKCwG2c6ya6YqAW0dJ2Pebz967VBqHBMZt606p
5o1iTy5N2mq65Tn2iq5H+ZdTrPp+g3tUp1zKILD7pyKMKxDxu4Gr0DApAod1AcwJ
c4q6BKHzfk4YEoEdBWT/paPdyl9WSLwn8aM/3Xm21716i2D7ounov0rACOF4EG4p
dQM0Md/CIE5H2qDLHBt6LvcOchpDZ3QT0gQdy2MC1+CGoV/nGMMTDbVG9z+FnzOC
7qJk1AKwBi4WNNgOTWjvnngHm/Hmg28R4b9uYVw90FpmoXPxWP44M5aMi/GRetxG
7SJHj+avsIJcpoSej8IoBWyz9PxlDrMLgi1oBMOxJyPKT3vaO/qsNr4YAJUQfYDj
mIOr6C3T1WvVXC7s+/VQ++pUWb9E8icwOEQQahmqVuwB3dkh6NfB/qDvAgMBAAGj
gZUwgZIwCQYDVR0TBAIwADAdBgNVHQ4EFgQUjgtnUzmw+wjXLmx7qnNAyuVYnG4w
RAYDVR0jBD0wO4AUyhshnB5qBxcSRg24G9DqRRzzrx2hGKQWMBQxEjAQBgNVBAMM
CVByb2N1cmFDQYIJALkzlv43gsT+MBMGA1UdJQQMMAoGCCsGAQUFBwMCMAsGA1Ud
DwQEAwIHgDANBgkqhkiG9w0BAQ0FAAOCAgEAZidgpN1kckUowNUslFxGd+HcJ63m
QzA4y8iZ9tbkKTXrHLyniB0VKIRXOME9xVAxiQCKSEc3CcDD9UWXVvfgO3s/fuSU
K2Q0xlndgEBAG+Mo/BPlbgUSAK/Qfvc8tjhG836SKFJ0qRMr4R/XoGXyVhR+WPrw
K4ZpjgX8OCRd5Mj00dCQdn+U+ksX12XeBFC0AkwAO3ShnaCwH1YBT4JkdORdpjcL
cCt8yRF3bK+EtEAm2mxPYdfYyv+ileYhpHOIk1Hgb6QcbSePRjjDrmX0D4dlB1tl
Y8GGMXUHmhb9Bbyw/aoEVZ8eeBVczb76HdnnokvF2gNJjccmI/47tJpyNt9fwFri
p4G8vAjgrBwS7KnM7QkrNSRNkWRqA2WTrCP6+1tsBJ8vGYu71fJNkzdOlrjE8EUW
gJZZWyxuhnkFALzyMW0cy8HVuB3Xpf/NQnS1DMRxy2raHKpvMKdL/4jju6VrRiEi
W4hO2V+Jo2tT3iFdFKJjcwoBq3JJ341u1SepUkSDrrVLwd12iwYadjRTFf2TtNbq
nO6DeDRZOTRVbcsPHQgIZ1eqvt28LqWtjufZZ48Xv1Ah4ySvtE3IZBFlx/d/Wtms
EsayReoCKYE1fvNQaIJ2yYaevonYSnW4XklGoNOKGRbHokL9d1Z59EIY1H2gBdqi
Z6+941FS4d0bITw=
-----END CERTIFICATE-----
