Certificate:
    Data:
        Version: 3 (0x2)
        Serial Number:
            ce:3d:12:02:0a:1f:da:34:74:55:46:f4:e0:c5:82:de
    Signature Algorithm: sha512WithRSAEncryption
        Issuer: CN=ProcuraCA
        Validity
            Not Before: Nov 24 13:57:52 2022 GMT
            Not After : Nov 21 13:57:52 2032 GMT
        Subject: CN=remoto45
        Subject Public Key Info:
            Public Key Algorithm: rsaEncryption
                Public-Key: (4096 bit)
                Modulus:
                    00:b3:b8:45:85:be:e6:6c:a7:f1:aa:51:f2:04:2f:
                    51:3a:2c:be:d7:33:e8:ff:a0:64:a3:6b:a7:f3:5f:
                    85:35:61:da:ce:e3:40:07:58:52:65:2b:31:21:06:
                    d6:48:81:78:0d:bb:fd:df:e9:f5:9c:17:b1:c8:56:
                    6a:0f:2d:b7:13:d1:09:0d:a2:28:05:08:b4:10:9b:
                    51:58:39:ec:7a:9e:95:dc:b0:26:64:18:78:f7:8d:
                    08:ef:c4:91:54:cc:67:13:18:41:35:64:71:53:dd:
                    42:a5:93:8a:f9:60:9b:ea:7b:35:dc:aa:6b:09:c4:
                    f9:43:d0:51:ee:0b:e0:e7:d1:cf:d9:02:e0:40:0c:
                    4c:ff:ca:5e:3d:f1:b9:40:2d:b3:e4:b5:4a:e1:27:
                    63:4a:5e:1b:6c:bb:26:02:55:8e:f1:2b:86:b7:43:
                    ba:ed:22:04:21:33:67:58:f4:14:cd:f7:1e:72:d1:
                    e8:ce:ba:49:f5:a0:f5:58:e8:f1:ed:7f:c5:d4:7c:
                    c1:ca:31:e3:95:f3:a0:f0:f0:34:06:d8:cb:c3:0c:
                    e7:c5:87:2a:4c:f2:0e:9d:c0:26:9a:6a:e4:46:67:
                    f6:16:6a:f4:48:2e:e3:45:8a:c9:3c:02:11:2a:ae:
                    c1:f4:ee:35:39:f2:bf:0a:fb:e9:66:71:f6:51:50:
                    f7:6e:86:a1:b6:81:ac:33:66:1f:66:1e:a2:ed:35:
                    77:e6:3b:6b:df:51:7a:e0:b9:0f:bf:ab:f7:d7:df:
                    bc:91:8d:da:5f:ae:7a:a8:e7:74:c8:2a:8f:5b:c3:
                    92:c5:9d:7b:19:84:2b:3e:cf:8a:98:66:d6:31:dd:
                    88:2b:be:a6:ed:9f:61:8b:22:e1:09:f3:81:d4:61:
                    a4:58:cb:ca:24:11:4e:21:2f:53:7a:d3:9c:3b:f1:
                    c5:87:c9:9c:18:cd:50:01:b7:57:fa:51:9b:48:6b:
                    48:9b:a1:8d:00:0c:ab:29:0e:52:f4:a7:4d:77:e4:
                    41:4c:7f:32:86:b6:5c:37:5b:67:46:6d:af:59:2c:
                    be:bd:7d:e3:65:b1:3e:c7:92:d7:bd:12:b3:e5:89:
                    bd:01:77:ff:bf:ae:a4:3f:1c:46:ec:4a:74:a6:f5:
                    22:c8:f2:c7:a9:44:c3:11:2a:a2:31:88:4c:01:01:
                    5a:d6:ee:6f:e8:fa:99:33:24:bf:83:97:4f:f7:10:
                    89:eb:8b:d1:8a:e4:90:86:df:f9:38:a7:de:57:92:
                    60:83:05:99:22:29:bf:ef:b4:b5:7a:de:2f:64:9a:
                    7c:38:20:8c:5e:7e:bd:3c:09:07:61:04:d9:7b:9f:
                    71:84:8e:d6:1d:62:da:2c:de:60:00:05:e7:2a:4e:
                    14:c3:09
                Exponent: 65537 (0x10001)
        X509v3 extensions:
            X509v3 Basic Constraints: 
                CA:FALSE
            X509v3 Subject Key Identifier: 
                CB:1F:50:B1:B3:F8:D2:E0:40:38:0B:B7:B1:97:60:54:46:C1:98:B9
            X509v3 Authority Key Identifier: 
                keyid:CA:1B:21:9C:1E:6A:07:17:12:46:0D:B8:1B:D0:EA:45:1C:F3:AF:1D
                DirName:/CN=ProcuraCA
                serial:B9:33:96:FE:37:82:C4:FE

            X509v3 Extended Key Usage: 
                TLS Web Client Authentication
            X509v3 Key Usage: 
                Digital Signature
    Signature Algorithm: sha512WithRSAEncryption
         4c:47:6b:32:50:2e:52:39:fd:7c:e5:e4:3e:8d:43:03:b1:45:
         d3:49:89:db:c7:28:ce:8a:42:94:68:58:3c:12:a5:58:06:65:
         3d:47:2f:05:5f:6d:00:4a:13:86:da:76:7a:ae:48:de:7b:98:
         c7:b1:ad:04:c0:aa:39:5c:94:50:39:85:17:ba:d6:10:8a:39:
         0d:69:22:36:8c:32:e6:09:ee:3f:9e:76:1f:d4:18:52:ca:c7:
         86:f6:ca:71:cb:a4:83:4e:06:d0:d0:0a:98:85:36:70:a8:60:
         18:ee:68:5b:ec:42:d8:06:8f:85:09:95:33:1e:04:2b:19:97:
         40:30:50:16:bb:43:01:de:76:be:cd:f7:18:74:01:1b:6c:59:
         49:69:35:95:a3:2a:d3:0e:dc:11:94:36:d0:c9:20:d1:14:2a:
         d0:fb:f6:c9:30:31:4a:76:60:0a:bf:4a:8a:f6:6a:2c:01:7f:
         f5:41:bc:6b:47:4f:cc:cb:e7:02:42:af:fa:7b:77:be:7c:59:
         20:7c:59:0d:e7:e0:07:2a:d8:40:3a:fd:c7:04:74:1f:53:9a:
         be:8a:1e:47:bb:6f:57:42:f7:47:8f:6a:46:87:e0:39:bd:0d:
         8e:f2:9e:3e:41:c2:3e:5a:a9:46:8a:90:5a:0a:5e:94:25:55:
         55:da:42:f8:d1:09:aa:2f:9c:3e:27:27:3b:fa:c3:11:cd:88:
         63:93:17:f7:0f:f5:0f:a4:ba:5c:e7:5f:72:ca:e4:82:90:44:
         af:50:89:15:5d:8b:45:be:a7:5c:9c:78:21:14:50:d6:d9:72:
         77:53:ac:ba:f5:65:fb:d3:8f:1f:ed:bb:a1:ab:84:12:cb:bb:
         44:63:87:5e:54:d1:b5:1e:04:83:14:f9:a8:c1:53:42:5e:70:
         62:f1:c5:4e:d5:75:a7:3c:d4:43:7c:77:b1:76:c9:5f:fa:87:
         68:6e:c7:d8:d6:72:f0:ce:b8:ae:da:6e:92:df:1f:23:68:f0:
         39:a8:e9:48:69:91:d8:ce:48:4d:df:00:1d:85:3d:c7:ee:ff:
         ac:d6:32:f4:5a:8c:3d:c6:ee:c7:7f:17:18:b0:89:1f:7b:05:
         99:24:43:86:4b:fd:f4:4f:76:38:9d:0d:40:9a:ae:d6:7b:94:
         92:88:21:f3:10:f1:a6:e4:86:94:91:8e:d8:be:97:55:2f:20:
         56:31:83:15:4b:62:3b:15:2a:d3:f8:07:a2:8c:15:bd:4d:e1:
         cc:07:c4:3d:5e:5f:42:1d:8c:cb:45:2d:c2:b2:e9:a7:ec:7b:
         da:fc:32:ae:26:91:8f:c4:09:75:dd:51:3f:22:a1:c5:ec:39:
         35:4c:d2:23:2a:a1:ad:84
-----BEGIN CERTIFICATE-----
MIIFSDCCAzCgAwIBAgIRAM49EgIKH9o0dFVG9ODFgt4wDQYJKoZIhvcNAQENBQAw
FDESMBAGA1UEAwwJUHJvY3VyYUNBMB4XDTIyMTEyNDEzNTc1MloXDTMyMTEyMTEz
NTc1MlowEzERMA8GA1UEAwwIcmVtb3RvNDUwggIiMA0GCSqGSIb3DQEBAQUAA4IC
DwAwggIKAoICAQCzuEWFvuZsp/GqUfIEL1E6LL7XM+j/oGSja6fzX4U1YdrO40AH
WFJlKzEhBtZIgXgNu/3f6fWcF7HIVmoPLbcT0QkNoigFCLQQm1FYOex6npXcsCZk
GHj3jQjvxJFUzGcTGEE1ZHFT3UKlk4r5YJvqezXcqmsJxPlD0FHuC+Dn0c/ZAuBA
DEz/yl498blALbPktUrhJ2NKXhtsuyYCVY7xK4a3Q7rtIgQhM2dY9BTN9x5y0ejO
ukn1oPVY6PHtf8XUfMHKMeOV86Dw8DQG2MvDDOfFhypM8g6dwCaaauRGZ/YWavRI
LuNFisk8AhEqrsH07jU58r8K++lmcfZRUPduhqG2gawzZh9mHqLtNXfmO2vfUXrg
uQ+/q/fX37yRjdpfrnqo53TIKo9bw5LFnXsZhCs+z4qYZtYx3Ygrvqbtn2GLIuEJ
84HUYaRYy8okEU4hL1N605w78cWHyZwYzVABt1f6UZtIa0iboY0ADKspDlL0p013
5EFMfzKGtlw3W2dGba9ZLL69feNlsT7Hkte9ErPlib0Bd/+/rqQ/HEbsSnSm9SLI
8sepRMMRKqIxiEwBAVrW7m/o+pkzJL+Dl0/3EInri9GK5JCG3/k4p95XkmCDBZki
Kb/vtLV63i9kmnw4IIxefr08CQdhBNl7n3GEjtYdYtos3mAABecqThTDCQIDAQAB
o4GVMIGSMAkGA1UdEwQCMAAwHQYDVR0OBBYEFMsfULGz+NLgQDgLt7GXYFRGwZi5
MEQGA1UdIwQ9MDuAFMobIZweagcXEkYNuBvQ6kUc868doRikFjAUMRIwEAYDVQQD
DAlQcm9jdXJhQ0GCCQC5M5b+N4LE/jATBgNVHSUEDDAKBggrBgEFBQcDAjALBgNV
HQ8EBAMCB4AwDQYJKoZIhvcNAQENBQADggIBAExHazJQLlI5/Xzl5D6NQwOxRdNJ
idvHKM6KQpRoWDwSpVgGZT1HLwVfbQBKE4badnquSN57mMexrQTAqjlclFA5hRe6
1hCKOQ1pIjaMMuYJ7j+edh/UGFLKx4b2ynHLpINOBtDQCpiFNnCoYBjuaFvsQtgG
j4UJlTMeBCsZl0AwUBa7QwHedr7N9xh0ARtsWUlpNZWjKtMO3BGUNtDJINEUKtD7
9skwMUp2YAq/Sor2aiwBf/VBvGtHT8zL5wJCr/p7d758WSB8WQ3n4Acq2EA6/ccE
dB9Tmr6KHke7b1dC90ePakaH4Dm9DY7ynj5Bwj5aqUaKkFoKXpQlVVXaQvjRCaov
nD4nJzv6wxHNiGOTF/cP9Q+kulznX3LK5IKQRK9QiRVdi0W+p1yceCEUUNbZcndT
rLr1ZfvTjx/tu6GrhBLLu0Rjh15U0bUeBIMU+ajBU0JecGLxxU7Vdac81EN8d7F2
yV/6h2hux9jWcvDOuK7abpLfHyNo8Dmo6UhpkdjOSE3fAB2FPcfu/6zWMvRajD3G
7sd/FxiwiR97BZkkQ4ZL/fRPdjidDUCartZ7lJKIIfMQ8abkhpSRjti+l1UvIFYx
gxVLYjsVKtP4B6KMFb1N4cwHxD1eX0IdjMtFLcKy6afse9r8Mq4mkY/ECXXdUT8i
ocXsOTVM0iMqoa2E
-----END CERTIFICATE-----
