Certificate:
    Data:
        Version: 3 (0x2)
        Serial Number:
            67:33:9b:9a:5d:68:2c:b4:22:10:6e:12:33:32:48:5e
    Signature Algorithm: sha512WithRSAEncryption
        Issuer: CN=ProcuraCA
        Validity
            Not Before: Nov 24 13:57:29 2022 GMT
            Not After : Nov 21 13:57:29 2032 GMT
        Subject: CN=remoto43
        Subject Public Key Info:
            Public Key Algorithm: rsaEncryption
                Public-Key: (4096 bit)
                Modulus:
                    00:b9:f9:73:f1:84:c7:16:a4:74:f8:f6:da:2d:72:
                    97:b8:1c:e5:0c:68:f6:38:8c:1c:31:6d:fe:fd:7b:
                    79:3d:9d:48:9c:50:47:1e:18:e7:9c:fb:f2:0c:bf:
                    e1:1e:0c:13:4e:1d:1f:71:ac:06:b7:44:a8:24:5e:
                    4c:0f:a4:e0:bc:15:98:8a:8d:2f:38:33:f4:97:86:
                    4b:84:a7:0d:5d:13:ef:89:1b:ca:ca:2f:17:32:2c:
                    9d:f0:65:cc:aa:2e:b4:1c:09:67:e4:84:e6:e7:38:
                    04:23:33:78:89:d2:b6:e1:b5:3c:a7:bc:07:eb:e4:
                    a7:4d:9f:62:c7:b8:80:e3:4c:d2:fe:a8:0a:08:92:
                    d1:76:48:6a:06:8a:fa:c1:6f:71:ab:c1:97:75:d3:
                    50:40:e5:c2:df:b2:83:b9:e5:09:4a:6d:0e:3b:83:
                    32:26:29:bc:51:33:9e:17:d2:7d:bd:45:1a:b9:4f:
                    d4:d6:46:08:d9:b1:ed:23:c1:13:ee:e0:fd:85:b3:
                    75:61:cc:a7:5c:58:0d:3c:cf:44:f5:d2:1e:ac:53:
                    96:5a:23:55:7a:77:45:d9:df:99:01:80:e6:ab:b9:
                    a4:59:d4:ac:f6:c1:ce:f4:7a:97:b8:28:0c:f9:ed:
                    b3:ca:fb:b0:b8:a8:3e:ea:0d:c5:ec:e6:58:b5:8b:
                    32:23:78:5e:59:eb:c6:77:d5:72:d6:2e:88:fa:46:
                    c4:81:73:c6:20:fb:14:d5:e6:7d:8c:53:ea:eb:d3:
                    de:78:77:0c:97:1e:71:f2:33:9d:32:d1:03:e7:56:
                    99:aa:f2:7f:39:72:54:48:8d:fa:63:e2:88:de:43:
                    21:db:01:05:9a:ce:77:39:be:94:aa:ba:15:cc:c2:
                    85:73:59:bc:9c:58:59:27:1e:5c:aa:65:0e:eb:ff:
                    18:8c:ed:ff:48:41:8f:4f:13:9f:fe:dc:58:8a:44:
                    93:a3:ca:53:43:3a:47:ee:d1:7c:46:56:e9:b9:77:
                    74:d4:b1:93:c1:f0:c9:d0:6a:56:66:25:75:99:99:
                    f5:84:04:8b:e2:75:d1:8c:4a:f0:b1:d7:0d:70:ca:
                    fb:be:b2:de:a1:ec:82:4f:24:65:02:3c:d1:32:0f:
                    a6:41:e9:e7:f7:36:65:f1:c6:61:32:f8:55:73:6e:
                    a1:7e:0e:26:41:aa:23:55:ed:e5:c3:fb:75:c5:86:
                    60:1b:94:9f:64:8b:1d:8e:bc:cb:a0:71:1b:98:89:
                    c3:a9:0f:84:d5:22:af:86:7c:aa:fd:99:04:cc:d6:
                    55:86:bc:42:bc:81:30:32:0c:83:fc:48:5e:91:7a:
                    7c:49:a2:78:1b:67:a1:9f:af:62:91:6a:ad:17:db:
                    8e:f4:e5
                Exponent: 65537 (0x10001)
        X509v3 extensions:
            X509v3 Basic Constraints: 
                CA:FALSE
            X509v3 Subject Key Identifier: 
                13:3D:0E:DF:95:6F:9A:FD:05:D1:73:1A:0F:6D:75:D2:8E:72:A2:F2
            X509v3 Authority Key Identifier: 
                keyid:CA:1B:21:9C:1E:6A:07:17:12:46:0D:B8:1B:D0:EA:45:1C:F3:AF:1D
                DirName:/CN=ProcuraCA
                serial:B9:33:96:FE:37:82:C4:FE

            X509v3 Extended Key Usage: 
                TLS Web Client Authentication
            X509v3 Key Usage: 
                Digital Signature
    Signature Algorithm: sha512WithRSAEncryption
         7a:9c:ac:9e:82:aa:51:e8:f1:97:52:c6:8e:55:8e:97:82:de:
         cd:bc:c6:59:0c:79:fe:87:97:11:d6:8f:98:ac:c4:3b:50:24:
         94:f9:7f:7f:e1:2b:e9:0c:60:9c:72:68:46:b3:2a:fa:cb:4c:
         9d:ee:2d:c9:7b:b2:b6:65:95:64:91:6b:fe:79:2a:3b:32:1a:
         64:46:c3:66:3b:c0:e3:be:05:5f:0f:b8:dd:64:f1:77:b3:87:
         88:d2:5b:58:8e:70:a0:d0:91:e9:5a:87:55:03:71:9a:e5:71:
         c6:64:12:f5:fe:45:2a:ec:7d:84:7c:50:13:97:94:85:c7:bc:
         16:97:e8:af:91:ec:5a:bb:89:51:3e:ab:bc:7a:a7:96:a3:12:
         3b:30:83:19:c7:35:18:de:42:c2:c4:4a:c5:76:32:18:1b:dd:
         72:a0:97:8e:f4:da:3e:6c:88:6e:cf:fe:e1:05:9d:dd:4e:99:
         a8:aa:52:4b:c9:fb:1f:79:d0:51:df:f4:e5:31:e1:c5:f1:e6:
         76:af:a4:e1:4d:fa:e8:b7:c9:6d:b6:31:bc:2f:69:77:99:84:
         fe:40:c5:b8:fb:fe:19:d4:3a:98:3a:1f:a2:e7:24:97:71:65:
         29:28:63:91:7a:82:c0:d1:85:9d:17:f7:36:90:93:48:83:e1:
         85:28:c4:c2:a8:37:01:67:4f:27:0f:de:2a:6b:ce:2e:e9:19:
         3b:d8:8c:f7:71:d9:94:d9:b8:db:2c:b0:d8:47:86:b3:7e:cc:
         40:4c:e3:ff:d6:cd:ff:f5:66:cb:22:3f:47:74:97:3d:b6:11:
         4b:f6:28:6d:3a:65:08:7b:3d:5b:cd:cb:12:44:60:a4:6d:ba:
         36:c7:0f:84:e4:28:1c:a7:62:55:fb:d9:a0:8b:27:d2:9f:19:
         4e:16:c6:07:c3:8c:80:04:a6:1f:f9:cf:ce:11:9a:ca:eb:05:
         55:3f:b8:63:18:9c:e9:1b:0d:1d:44:17:2b:6b:49:17:35:47:
         30:2b:00:1f:e2:0f:96:d8:fb:bb:ab:9a:cc:9e:d2:b7:1c:a8:
         1c:c1:f5:59:e5:79:48:5d:57:d8:54:5b:5b:c5:e7:63:13:bb:
         a9:0d:b4:95:6a:6e:25:36:f3:f4:01:e4:c0:e8:8b:0a:60:f2:
         cb:8f:4d:cc:9a:10:38:4e:f0:8a:5e:71:e0:3b:76:0c:0e:61:
         9a:28:61:9c:22:cf:75:b9:36:9a:03:ac:eb:7e:cf:cf:2f:c1:
         ed:54:eb:f9:5d:9b:28:37:c7:95:21:cb:a1:c6:e8:32:11:e0:
         73:47:07:ba:bb:9e:cb:c7:95:c2:52:22:69:60:ee:51:8d:f5:
         df:63:4c:f2:ed:e4:79:f7
-----BEGIN CERTIFICATE-----
MIIFRzCCAy+gAwIBAgIQZzObml1oLLQiEG4SMzJIXjANBgkqhkiG9w0BAQ0FADAU
MRIwEAYDVQQDDAlQcm9jdXJhQ0EwHhcNMjIxMTI0MTM1NzI5WhcNMzIxMTIxMTM1
NzI5WjATMREwDwYDVQQDDAhyZW1vdG80MzCCAiIwDQYJKoZIhvcNAQEBBQADggIP
ADCCAgoCggIBALn5c/GExxakdPj22i1yl7gc5Qxo9jiMHDFt/v17eT2dSJxQRx4Y
55z78gy/4R4ME04dH3GsBrdEqCReTA+k4LwVmIqNLzgz9JeGS4SnDV0T74kbysov
FzIsnfBlzKoutBwJZ+SE5uc4BCMzeInStuG1PKe8B+vkp02fYse4gONM0v6oCgiS
0XZIagaK+sFvcavBl3XTUEDlwt+yg7nlCUptDjuDMiYpvFEznhfSfb1FGrlP1NZG
CNmx7SPBE+7g/YWzdWHMp1xYDTzPRPXSHqxTllojVXp3RdnfmQGA5qu5pFnUrPbB
zvR6l7goDPnts8r7sLioPuoNxezmWLWLMiN4XlnrxnfVctYuiPpGxIFzxiD7FNXm
fYxT6uvT3nh3DJcecfIznTLRA+dWmaryfzlyVEiN+mPiiN5DIdsBBZrOdzm+lKq6
FczChXNZvJxYWSceXKplDuv/GIzt/0hBj08Tn/7cWIpEk6PKU0M6R+7RfEZW6bl3
dNSxk8HwydBqVmYldZmZ9YQEi+J10YxK8LHXDXDK+76y3qHsgk8kZQI80TIPpkHp
5/c2ZfHGYTL4VXNuoX4OJkGqI1Xt5cP7dcWGYBuUn2SLHY68y6BxG5iJw6kPhNUi
r4Z8qv2ZBMzWVYa8QryBMDIMg/xIXpF6fEmieBtnoZ+vYpFqrRfbjvTlAgMBAAGj
gZUwgZIwCQYDVR0TBAIwADAdBgNVHQ4EFgQUEz0O35Vvmv0F0XMaD2110o5yovIw
RAYDVR0jBD0wO4AUyhshnB5qBxcSRg24G9DqRRzzrx2hGKQWMBQxEjAQBgNVBAMM
CVByb2N1cmFDQYIJALkzlv43gsT+MBMGA1UdJQQMMAoGCCsGAQUFBwMCMAsGA1Ud
DwQEAwIHgDANBgkqhkiG9w0BAQ0FAAOCAgEAepysnoKqUejxl1LGjlWOl4LezbzG
WQx5/oeXEdaPmKzEO1AklPl/f+Er6QxgnHJoRrMq+stMne4tyXuytmWVZJFr/nkq
OzIaZEbDZjvA474FXw+43WTxd7OHiNJbWI5woNCR6VqHVQNxmuVxxmQS9f5FKux9
hHxQE5eUhce8Fpfor5HsWruJUT6rvHqnlqMSOzCDGcc1GN5CwsRKxXYyGBvdcqCX
jvTaPmyIbs/+4QWd3U6ZqKpSS8n7H3nQUd/05THhxfHmdq+k4U366LfJbbYxvC9p
d5mE/kDFuPv+GdQ6mDofouckl3FlKShjkXqCwNGFnRf3NpCTSIPhhSjEwqg3AWdP
Jw/eKmvOLukZO9iM93HZlNm42yyw2EeGs37MQEzj/9bN//VmyyI/R3SXPbYRS/Yo
bTplCHs9W83LEkRgpG26NscPhOQoHKdiVfvZoIsn0p8ZThbGB8OMgASmH/nPzhGa
yusFVT+4Yxic6RsNHUQXK2tJFzVHMCsAH+IPltj7u6uazJ7StxyoHMH1WeV5SF1X
2FRbW8XnYxO7qQ20lWpuJTbz9AHkwOiLCmDyy49NzJoQOE7wil5x4Dt2DA5hmihh
nCLPdbk2mgOs637Pzy/B7VTr+V2bKDfHlSHLocboMhHgc0cHuruey8eVwlIiaWDu
UY3132NM8u3kefc=
-----END CERTIFICATE-----
