Certificate:
    Data:
        Version: 3 (0x2)
        Serial Number:
            e4:f0:ca:68:7f:13:c9:89:e4:af:0f:e2:25:eb:38:e2
    Signature Algorithm: sha512WithRSAEncryption
        Issuer: CN=ProcuraCA
        Validity
            Not Before: Nov 24 13:57:01 2022 GMT
            Not After : Nov 21 13:57:01 2032 GMT
        Subject: CN=remoto40
        Subject Public Key Info:
            Public Key Algorithm: rsaEncryption
                Public-Key: (4096 bit)
                Modulus:
                    00:c0:9b:f0:b2:29:2f:9d:8d:2f:63:f2:71:42:d9:
                    0b:ee:f4:16:ed:f4:af:ce:03:e5:1e:b9:80:3a:d5:
                    bb:ff:b1:e9:03:ae:f4:1f:3c:9d:af:c4:78:07:fa:
                    d1:c1:ef:be:bf:e3:9f:d4:e5:d4:95:58:02:3b:1b:
                    91:e4:62:4f:70:af:c8:2b:dd:43:ac:ef:ca:04:9e:
                    be:ec:2d:cb:f4:b6:db:fe:a1:48:6c:6b:78:de:a3:
                    47:69:5e:9e:4d:28:26:e3:80:9d:7d:f8:17:f8:c3:
                    f1:22:ff:69:6e:ed:66:9f:1e:0a:b3:52:fd:5f:47:
                    d7:58:68:dd:1e:57:c7:22:0d:5f:bf:cb:88:c5:e5:
                    92:52:5c:bc:98:d5:b5:19:16:c6:aa:93:cf:f7:53:
                    98:51:86:ed:6d:94:4d:cb:4a:2a:15:d8:cb:58:2c:
                    a2:70:29:13:fd:df:49:ca:66:3b:a9:52:0f:36:5b:
                    31:80:5e:13:8d:23:2c:56:27:af:7b:47:ef:fb:ec:
                    79:fd:f0:0f:f2:85:0f:95:92:56:fa:e2:44:2a:7e:
                    91:aa:38:b1:59:26:c0:1e:1f:8c:56:9b:55:26:81:
                    31:a7:fb:ae:68:52:92:58:c0:db:d8:05:5c:b4:eb:
                    f1:15:ff:1b:63:86:6e:16:0e:87:a8:7a:bd:85:e0:
                    17:84:7d:47:eb:da:f6:fc:95:c3:e5:b1:9e:16:30:
                    4f:24:9f:43:84:43:78:9b:37:a0:af:59:54:c4:6e:
                    6f:cb:27:4a:a2:11:27:4b:08:ff:0b:da:77:49:30:
                    9d:0a:1e:cb:b3:1f:12:1c:ed:79:df:6a:f8:cb:3a:
                    31:36:6a:cc:d8:72:cf:76:4b:cc:bf:d8:06:78:dd:
                    75:b1:ac:d6:bf:65:7d:be:df:61:75:04:2d:24:a5:
                    0f:ec:e8:33:6c:67:29:27:88:4b:f4:cb:cc:d0:23:
                    13:d7:74:42:66:f3:63:e9:e3:7d:78:9f:39:e2:97:
                    94:5d:9f:cf:ee:ff:32:c4:96:ac:ad:5d:85:90:e4:
                    05:c9:d3:38:c5:81:0c:10:6c:53:e9:ac:3f:cc:9a:
                    ae:d4:8a:2e:1e:ff:ab:34:b1:cf:c7:66:c4:54:3a:
                    92:af:34:70:f7:28:18:94:30:8b:92:1d:9f:2d:65:
                    a0:a7:b3:ba:d8:dd:ce:20:11:1d:3b:e9:e1:9b:c9:
                    7d:69:22:e3:d5:6d:f1:1c:71:19:2c:41:a6:3f:5d:
                    02:54:81:41:20:ac:08:f0:37:ee:46:18:a6:a3:ea:
                    ea:c9:47:83:e5:59:33:aa:db:a5:39:96:80:b8:f6:
                    d4:34:27:9c:c4:ba:dd:d3:50:8c:71:d1:cd:76:8a:
                    49:90:bf
                Exponent: 65537 (0x10001)
        X509v3 extensions:
            X509v3 Basic Constraints: 
                CA:FALSE
            X509v3 Subject Key Identifier: 
                CF:E2:9A:44:40:1C:0D:42:F0:C6:3B:26:EB:B4:B3:7A:74:04:99:B3
            X509v3 Authority Key Identifier: 
                keyid:CA:1B:21:9C:1E:6A:07:17:12:46:0D:B8:1B:D0:EA:45:1C:F3:AF:1D
                DirName:/CN=ProcuraCA
                serial:B9:33:96:FE:37:82:C4:FE

            X509v3 Extended Key Usage: 
                TLS Web Client Authentication
            X509v3 Key Usage: 
                Digital Signature
    Signature Algorithm: sha512WithRSAEncryption
         2d:bb:0c:36:4e:df:61:a3:6d:d3:8f:2c:c1:f1:ca:6a:6b:28:
         8c:17:83:10:f2:8b:fb:12:fc:f8:0b:07:63:31:20:7b:b5:e8:
         a8:0f:6d:6d:b2:3b:e3:eb:37:3b:ca:97:a6:76:c1:f6:34:3b:
         eb:d2:f8:b3:5c:ac:19:0f:28:90:e6:0e:70:f4:49:b5:11:9e:
         99:a5:25:79:29:c5:37:fa:bf:3a:7a:b7:15:4d:d9:c4:97:f8:
         f7:03:b9:bb:85:fe:83:df:6a:a4:5b:ad:6f:52:ef:1a:d9:8a:
         37:e1:a5:27:9d:0f:5b:a1:ee:19:c9:55:75:90:b0:a1:7c:38:
         40:08:2b:c4:31:57:01:09:ed:b1:2c:e8:af:ea:09:3e:af:61:
         d0:37:a2:0b:58:62:de:27:2b:cd:84:67:31:c6:74:b4:f9:15:
         c4:4e:da:2b:13:27:11:27:f6:59:46:f8:3e:bf:16:42:18:44:
         3f:d5:eb:1b:1f:f9:e0:e5:08:99:29:23:b6:7c:90:73:c1:6e:
         ea:7d:c0:91:fe:64:2d:6e:80:95:a1:59:98:b1:69:87:da:e0:
         33:a3:37:49:13:2b:f1:00:de:7d:e8:6a:2d:c0:c2:0c:f4:f2:
         1c:ca:46:c5:bc:be:62:6d:50:d1:29:83:ab:f8:f8:85:86:c2:
         f8:fd:df:11:f0:08:e6:e9:ad:42:e0:3a:40:85:b0:40:00:e6:
         b2:99:81:09:e4:89:73:7a:3b:0a:ea:97:22:6b:83:d9:c3:a2:
         8c:71:80:bc:5b:d5:f9:ba:87:e1:08:fa:e3:59:5e:6a:a1:35:
         f5:37:f9:2b:30:d2:3e:8b:14:02:cc:08:e4:da:af:29:a8:3e:
         6a:d3:a4:2e:2c:58:2c:3a:e0:2d:d5:1c:bb:43:3c:3a:51:87:
         dd:90:4e:68:58:12:79:e5:bb:26:8e:e2:84:cb:fd:b4:81:4a:
         59:f1:ca:30:e8:43:e3:17:35:53:c5:f3:3e:07:aa:20:a8:fd:
         a4:35:17:2b:a2:06:dd:48:6c:30:bb:2f:7b:fc:48:a0:4d:42:
         08:2c:36:58:fc:41:a7:39:31:4d:22:5a:8a:82:73:a9:1e:e5:
         ff:e9:2e:77:ea:9c:97:c5:9b:dd:15:59:8f:14:21:a0:d1:57:
         15:07:08:ae:01:83:c9:5e:fa:57:01:1f:fb:16:6f:36:89:0f:
         15:13:90:3b:f4:dd:50:43:0d:a6:71:b0:91:0a:f5:2f:44:43:
         cf:8f:c5:fe:fe:24:6c:de:21:f2:75:f0:8c:cf:3b:05:ab:7c:
         09:f3:13:36:38:f9:15:c4:8f:05:f6:06:df:e9:5b:df:be:61:
         32:cf:65:a4:c8:cd:c2:f1
-----BEGIN CERTIFICATE-----
MIIFSDCCAzCgAwIBAgIRAOTwymh/E8mJ5K8P4iXrOOIwDQYJKoZIhvcNAQENBQAw
FDESMBAGA1UEAwwJUHJvY3VyYUNBMB4XDTIyMTEyNDEzNTcwMVoXDTMyMTEyMTEz
NTcwMVowEzERMA8GA1UEAwwIcmVtb3RvNDAwggIiMA0GCSqGSIb3DQEBAQUAA4IC
DwAwggIKAoICAQDAm/CyKS+djS9j8nFC2Qvu9Bbt9K/OA+UeuYA61bv/sekDrvQf
PJ2vxHgH+tHB776/45/U5dSVWAI7G5HkYk9wr8gr3UOs78oEnr7sLcv0ttv+oUhs
a3jeo0dpXp5NKCbjgJ19+Bf4w/Ei/2lu7WafHgqzUv1fR9dYaN0eV8ciDV+/y4jF
5ZJSXLyY1bUZFsaqk8/3U5hRhu1tlE3LSioV2MtYLKJwKRP930nKZjupUg82WzGA
XhONIyxWJ697R+/77Hn98A/yhQ+Vklb64kQqfpGqOLFZJsAeH4xWm1UmgTGn+65o
UpJYwNvYBVy06/EV/xtjhm4WDoeoer2F4BeEfUfr2vb8lcPlsZ4WME8kn0OEQ3ib
N6CvWVTEbm/LJ0qiESdLCP8L2ndJMJ0KHsuzHxIc7XnfavjLOjE2aszYcs92S8y/
2AZ43XWxrNa/ZX2+32F1BC0kpQ/s6DNsZykniEv0y8zQIxPXdEJm82Pp4314nzni
l5Rdn8/u/zLElqytXYWQ5AXJ0zjFgQwQbFPprD/Mmq7Uii4e/6s0sc/HZsRUOpKv
NHD3KBiUMIuSHZ8tZaCns7rY3c4gER076eGbyX1pIuPVbfEccRksQaY/XQJUgUEg
rAjwN+5GGKaj6urJR4PlWTOq26U5loC49tQ0J5zEut3TUIxx0c12ikmQvwIDAQAB
o4GVMIGSMAkGA1UdEwQCMAAwHQYDVR0OBBYEFM/imkRAHA1C8MY7Juu0s3p0BJmz
MEQGA1UdIwQ9MDuAFMobIZweagcXEkYNuBvQ6kUc868doRikFjAUMRIwEAYDVQQD
DAlQcm9jdXJhQ0GCCQC5M5b+N4LE/jATBgNVHSUEDDAKBggrBgEFBQcDAjALBgNV
HQ8EBAMCB4AwDQYJKoZIhvcNAQENBQADggIBAC27DDZO32GjbdOPLMHxymprKIwX
gxDyi/sS/PgLB2MxIHu16KgPbW2yO+PrNzvKl6Z2wfY0O+vS+LNcrBkPKJDmDnD0
SbURnpmlJXkpxTf6vzp6txVN2cSX+PcDubuF/oPfaqRbrW9S7xrZijfhpSedD1uh
7hnJVXWQsKF8OEAIK8QxVwEJ7bEs6K/qCT6vYdA3ogtYYt4nK82EZzHGdLT5FcRO
2isTJxEn9llG+D6/FkIYRD/V6xsf+eDlCJkpI7Z8kHPBbup9wJH+ZC1ugJWhWZix
aYfa4DOjN0kTK/EA3n3oai3Awgz08hzKRsW8vmJtUNEpg6v4+IWGwvj93xHwCObp
rULgOkCFsEAA5rKZgQnkiXN6OwrqlyJrg9nDooxxgLxb1fm6h+EI+uNZXmqhNfU3
+Ssw0j6LFALMCOTarymoPmrTpC4sWCw64C3VHLtDPDpRh92QTmhYEnnluyaO4oTL
/bSBSlnxyjDoQ+MXNVPF8z4HqiCo/aQ1FyuiBt1IbDC7L3v8SKBNQggsNlj8Qac5
MU0iWoqCc6ke5f/pLnfqnJfFm90VWY8UIaDRVxUHCK4Bg8le+lcBH/sWbzaJDxUT
kDv03VBDDaZxsJEK9S9EQ8+Pxf7+JGzeIfJ18IzPOwWrfAnzEzY4+RXEjwX2Bt/p
W9++YTLPZaTIzcLx
-----END CERTIFICATE-----
