Certificate:
    Data:
        Version: 3 (0x2)
        Serial Number:
            d1:d7:dd:c2:04:ad:2d:f9:14:c0:a9:ba:66:ea:07:70
    Signature Algorithm: sha512WithRSAEncryption
        Issuer: CN=ProcuraCA
        Validity
            Not Before: Nov 24 13:56:36 2022 GMT
            Not After : Nov 21 13:56:36 2032 GMT
        Subject: CN=remoto38
        Subject Public Key Info:
            Public Key Algorithm: rsaEncryption
                Public-Key: (4096 bit)
                Modulus:
                    00:dc:55:c5:f0:26:65:52:f3:35:78:42:6a:5e:8a:
                    bb:bb:f2:ef:e1:f7:73:53:b1:dd:ba:3b:4b:49:e5:
                    98:51:d9:de:aa:38:a4:30:13:47:fa:4f:cb:41:7c:
                    e8:41:5d:af:0d:a2:45:5a:9a:bd:22:57:bb:3d:dc:
                    36:1c:a3:a4:99:55:2a:61:26:e2:95:91:dc:e0:72:
                    66:2a:8a:58:92:5a:c9:01:c6:09:82:ef:61:cd:1d:
                    f5:07:c1:a7:c5:ad:d3:7d:b3:c1:b5:06:42:d0:aa:
                    54:12:2e:c8:d6:40:5c:25:b2:5b:78:5f:51:5f:6e:
                    a6:99:f5:73:6c:a6:d5:cc:3e:a7:ad:d1:e3:93:47:
                    b1:3c:9d:4d:ce:2e:cd:d8:65:3e:70:a0:cc:2d:a3:
                    79:e9:0a:ac:63:97:4d:58:83:ec:03:63:ac:f4:0f:
                    d2:09:6a:30:9c:f3:57:0a:b0:a7:01:97:24:75:c5:
                    4c:b2:65:c8:61:af:87:32:de:06:6d:ca:64:42:cd:
                    49:11:ac:a7:5c:68:eb:56:e3:1a:fd:c9:cb:d4:d7:
                    37:d6:54:db:21:9c:fc:ad:31:8a:be:67:2b:6b:98:
                    49:62:94:db:ee:9e:85:2a:55:60:21:c3:2f:1b:52:
                    47:ce:3c:c7:b9:b2:af:0e:1e:2b:13:9e:56:0c:af:
                    40:c7:d4:0d:4a:67:af:4c:eb:2b:1c:4c:b3:b2:2d:
                    8e:ba:98:c0:9f:f5:d8:64:f7:fd:7b:40:b6:ff:80:
                    e6:90:69:37:24:11:80:fd:80:31:f4:2d:96:01:a2:
                    f4:58:e4:6c:e2:8a:26:1c:b6:f2:c8:21:54:4e:72:
                    50:c4:be:24:a2:a2:69:d8:2e:cb:61:a8:45:5c:39:
                    4d:7b:9c:29:10:a6:01:4d:01:a7:41:f5:38:f0:67:
                    fc:db:a6:90:eb:35:e3:5b:86:8e:44:dc:30:30:e2:
                    c9:3d:5f:66:54:79:fe:e4:2c:78:d1:f3:e6:49:82:
                    a6:f3:a1:2f:3c:d6:0b:c4:3e:3a:e0:00:04:1d:a7:
                    d5:50:4f:d0:85:0a:6a:f2:e3:08:e8:28:29:9f:83:
                    2f:18:41:f7:0d:e0:f0:b6:99:9c:87:b4:d7:e2:b6:
                    ef:e4:b0:3b:83:fc:ce:f8:eb:8b:d8:fd:2b:c7:93:
                    44:c0:56:fc:3d:58:6d:f7:52:84:cb:4f:9d:80:d5:
                    43:53:13:a7:6a:c2:2f:01:ac:d6:09:c9:80:96:44:
                    80:7f:c4:21:4b:08:32:7b:2b:24:06:bb:46:c9:1f:
                    b7:f2:08:c4:e0:49:08:3b:c3:60:66:df:6c:0f:bc:
                    25:ec:a7:21:cf:b9:23:1a:d7:d6:19:0a:f6:4a:66:
                    86:55:d3
                Exponent: 65537 (0x10001)
        X509v3 extensions:
            X509v3 Basic Constraints: 
                CA:FALSE
            X509v3 Subject Key Identifier: 
                81:FD:9E:FA:13:55:0D:3B:96:CA:19:08:FE:8A:66:B8:57:00:39:22
            X509v3 Authority Key Identifier: 
                keyid:CA:1B:21:9C:1E:6A:07:17:12:46:0D:B8:1B:D0:EA:45:1C:F3:AF:1D
                DirName:/CN=ProcuraCA
                serial:B9:33:96:FE:37:82:C4:FE

            X509v3 Extended Key Usage: 
                TLS Web Client Authentication
            X509v3 Key Usage: 
                Digital Signature
    Signature Algorithm: sha512WithRSAEncryption
         30:37:9f:4c:18:32:4c:99:ac:14:d7:2d:b6:43:b7:82:8a:c9:
         49:95:cc:bf:f7:26:f7:09:76:51:88:fb:4d:7a:91:e1:3a:c2:
         89:65:09:d6:fe:74:6b:f9:a6:5f:8f:7e:d6:e7:9a:b2:62:c5:
         66:51:eb:11:13:e4:84:66:4b:5d:ae:94:35:35:bd:5c:81:44:
         e6:35:7d:ee:af:69:35:5c:ef:2c:0d:4e:cc:21:11:c6:93:99:
         bf:c4:45:fa:91:0f:12:74:d7:ad:e6:e4:b5:9f:df:fb:ca:43:
         a4:dc:87:86:33:58:73:8a:8a:d2:44:a9:15:ae:52:c8:ca:70:
         32:04:0e:60:78:cf:5c:b2:cb:00:df:ed:99:19:b0:ef:4e:fd:
         fc:68:da:af:0d:80:08:49:be:f6:82:1a:75:22:1d:6c:44:b4:
         6a:77:83:9e:88:73:72:05:01:11:e1:83:47:8e:72:dc:7d:0c:
         f8:e6:47:c2:02:3d:ce:2e:be:0b:1f:af:59:55:be:8f:fd:a4:
         ce:68:ec:6e:50:10:ae:e8:61:5b:cb:23:cd:6a:63:e0:82:0f:
         78:d1:42:5f:ef:56:03:8f:8c:35:94:49:59:6e:e8:a7:e0:44:
         ff:61:55:d4:6d:a8:f9:eb:db:76:9f:65:cb:66:dc:8a:8d:ca:
         03:14:eb:ec:e0:f0:e0:e4:69:33:d8:0b:3f:9e:42:cb:e3:82:
         fd:ce:31:53:ec:26:78:e7:d3:73:ee:86:95:63:92:09:ab:18:
         60:2d:b0:6a:34:c4:68:be:7e:68:9c:5c:5e:3b:1d:64:e3:83:
         fe:5c:27:25:65:79:fe:1a:dc:bc:7a:cf:cc:72:7c:4c:e9:ca:
         bf:17:11:fa:2a:cf:1b:e0:94:7b:c4:1f:a4:1a:be:6c:15:67:
         03:7d:b2:74:9b:42:ec:6d:a0:12:bc:f9:4c:a8:ea:ab:88:8b:
         7b:c6:b0:fb:ed:55:30:37:b7:86:25:29:06:7b:3c:2c:ff:c0:
         1d:dd:e7:6c:5d:05:ed:2d:ca:80:31:ab:49:6f:3e:ce:6f:20:
         25:7f:b9:96:07:f6:fa:ac:c4:80:e2:bf:7d:cd:68:31:fe:c8:
         2c:a1:27:36:f0:9a:ac:5b:29:08:4a:3f:2f:00:de:ee:96:c9:
         c9:36:8b:ca:28:3e:b3:40:4f:b7:89:bd:32:aa:91:7c:89:92:
         59:2e:40:f4:67:21:a1:0d:ab:17:3b:92:fe:c4:f7:f0:f6:36:
         87:7a:09:65:d8:80:b3:38:c1:9e:7f:91:c4:77:db:9b:00:de:
         34:53:21:dc:52:4c:98:b0:51:b2:2b:6e:c5:84:3f:25:60:91:
         4a:79:0b:84:00:7d:50:d4
-----BEGIN CERTIFICATE-----
MIIFSDCCAzCgAwIBAgIRANHX3cIErS35FMCpumbqB3AwDQYJKoZIhvcNAQENBQAw
FDESMBAGA1UEAwwJUHJvY3VyYUNBMB4XDTIyMTEyNDEzNTYzNloXDTMyMTEyMTEz
NTYzNlowEzERMA8GA1UEAwwIcmVtb3RvMzgwggIiMA0GCSqGSIb3DQEBAQUAA4IC
DwAwggIKAoICAQDcVcXwJmVS8zV4Qmpeiru78u/h93NTsd26O0tJ5ZhR2d6qOKQw
E0f6T8tBfOhBXa8NokVamr0iV7s93DYco6SZVSphJuKVkdzgcmYqiliSWskBxgmC
72HNHfUHwafFrdN9s8G1BkLQqlQSLsjWQFwlslt4X1FfbqaZ9XNsptXMPqet0eOT
R7E8nU3OLs3YZT5woMwto3npCqxjl01Yg+wDY6z0D9IJajCc81cKsKcBlyR1xUyy
Zchhr4cy3gZtymRCzUkRrKdcaOtW4xr9ycvU1zfWVNshnPytMYq+ZytrmElilNvu
noUqVWAhwy8bUkfOPMe5sq8OHisTnlYMr0DH1A1KZ69M6yscTLOyLY66mMCf9dhk
9/17QLb/gOaQaTckEYD9gDH0LZYBovRY5GziiiYctvLIIVROclDEviSiomnYLsth
qEVcOU17nCkQpgFNAadB9TjwZ/zbppDrNeNbho5E3DAw4sk9X2ZUef7kLHjR8+ZJ
gqbzoS881gvEPjrgAAQdp9VQT9CFCmry4wjoKCmfgy8YQfcN4PC2mZyHtNfitu/k
sDuD/M7464vY/SvHk0TAVvw9WG33UoTLT52A1UNTE6dqwi8BrNYJyYCWRIB/xCFL
CDJ7KyQGu0bJH7fyCMTgSQg7w2Bm32wPvCXspyHPuSMa19YZCvZKZoZV0wIDAQAB
o4GVMIGSMAkGA1UdEwQCMAAwHQYDVR0OBBYEFIH9nvoTVQ07lsoZCP6KZrhXADki
MEQGA1UdIwQ9MDuAFMobIZweagcXEkYNuBvQ6kUc868doRikFjAUMRIwEAYDVQQD
DAlQcm9jdXJhQ0GCCQC5M5b+N4LE/jATBgNVHSUEDDAKBggrBgEFBQcDAjALBgNV
HQ8EBAMCB4AwDQYJKoZIhvcNAQENBQADggIBADA3n0wYMkyZrBTXLbZDt4KKyUmV
zL/3JvcJdlGI+016keE6wollCdb+dGv5pl+PftbnmrJixWZR6xET5IRmS12ulDU1
vVyBROY1fe6vaTVc7ywNTswhEcaTmb/ERfqRDxJ0163m5LWf3/vKQ6Tch4YzWHOK
itJEqRWuUsjKcDIEDmB4z1yyywDf7ZkZsO9O/fxo2q8NgAhJvvaCGnUiHWxEtGp3
g56Ic3IFARHhg0eOctx9DPjmR8ICPc4uvgsfr1lVvo/9pM5o7G5QEK7oYVvLI81q
Y+CCD3jRQl/vVgOPjDWUSVlu6KfgRP9hVdRtqPnr23afZctm3IqNygMU6+zg8ODk
aTPYCz+eQsvjgv3OMVPsJnjn03PuhpVjkgmrGGAtsGo0xGi+fmicXF47HWTjg/5c
JyVlef4a3Lx6z8xyfEzpyr8XEfoqzxvglHvEH6QavmwVZwN9snSbQuxtoBK8+Uyo
6quIi3vGsPvtVTA3t4YlKQZ7PCz/wB3d52xdBe0tyoAxq0lvPs5vICV/uZYH9vqs
xIDiv33NaDH+yCyhJzbwmqxbKQhKPy8A3u6Wyck2i8ooPrNAT7eJvTKqkXyJklku
QPRnIaENqxc7kv7E9/D2Nod6CWXYgLM4wZ5/kcR325sA3jRTIdxSTJiwUbIrbsWE
PyVgkUp5C4QAfVDU
-----END CERTIFICATE-----
