Certificate:
    Data:
        Version: 3 (0x2)
        Serial Number:
            fc:f5:5d:1e:6c:2f:5a:77:91:9b:41:cd:03:cf:bc:b0
    Signature Algorithm: sha512WithRSAEncryption
        Issuer: CN=ProcuraCA
        Validity
            Not Before: Nov 24 13:58:00 2022 GMT
            Not After : Nov 21 13:58:00 2032 GMT
        Subject: CN=remoto46
        Subject Public Key Info:
            Public Key Algorithm: rsaEncryption
                Public-Key: (4096 bit)
                Modulus:
                    00:ad:66:73:cc:ec:8b:a3:6e:cb:56:a8:1f:ea:a1:
                    9f:6d:92:ca:52:65:9e:43:ca:6f:09:58:75:8b:a0:
                    db:05:56:05:ed:33:53:8c:3a:e7:22:1d:b6:c0:76:
                    3c:29:78:20:84:bc:7b:3e:dc:91:a2:87:e9:37:a0:
                    57:68:cd:98:76:41:6d:67:b6:07:b9:7a:63:96:e4:
                    fb:0a:33:e0:26:9b:c0:d7:b9:1b:c7:e7:33:fb:65:
                    97:05:8e:ac:69:96:eb:0b:28:67:bf:d8:f3:21:82:
                    03:b3:34:9f:f4:3d:1d:02:39:e6:4c:7e:4e:30:8d:
                    62:1f:d7:49:3d:b5:03:34:26:18:cf:de:38:70:3b:
                    93:43:8b:71:0e:f5:ce:50:d8:49:bd:6a:df:9a:ed:
                    eb:1b:f8:a1:90:85:fa:9b:f3:9b:75:63:67:7d:2e:
                    24:86:24:3e:cd:74:1d:42:7f:7b:a3:40:a3:15:15:
                    17:63:9c:b9:d1:86:69:44:58:bc:cc:c5:76:03:3a:
                    e2:0d:19:22:6f:1f:cc:cd:61:9e:49:31:24:9a:67:
                    12:0c:44:b8:7f:33:4a:47:a4:7f:1b:b4:ed:ad:30:
                    64:00:67:97:b4:71:a2:46:92:16:8a:c2:33:f4:fc:
                    bf:a9:80:d5:23:cd:dc:0b:96:97:b4:87:32:df:95:
                    74:d5:07:a3:47:fc:a4:b5:21:d9:d2:ab:42:77:8a:
                    05:2d:ac:b6:cf:12:e3:ee:8e:1b:70:9a:57:21:4e:
                    59:5d:60:74:6d:35:2d:06:89:82:f6:5c:db:dc:8d:
                    0b:21:1f:c5:cf:39:40:ab:28:72:dc:6b:8c:ee:e8:
                    25:00:15:b4:aa:59:df:2b:fa:ed:7b:09:78:a2:e7:
                    72:73:1f:04:76:3e:a2:59:9a:73:4a:97:0c:0e:e2:
                    3d:5e:30:2c:27:a5:d5:ba:3d:e4:54:04:9a:61:4d:
                    d1:bb:5e:9f:a6:f4:88:4c:f6:ac:4e:ff:24:7c:b7:
                    a3:e2:5a:d2:c8:7a:8a:38:80:90:3e:18:b9:40:f5:
                    cf:8d:a6:9d:7b:d6:f0:0c:fb:d8:21:d2:2d:8d:e0:
                    b2:6c:fe:59:56:25:a5:8c:6f:6a:41:eb:89:25:1c:
                    58:15:65:e3:7d:75:9a:a1:d3:77:77:8b:51:fc:dc:
                    cc:b1:f0:dc:12:1f:7a:34:32:78:55:0c:36:56:a6:
                    01:4a:53:2a:f8:e7:9f:d3:a0:9f:13:ea:4d:c7:7a:
                    6a:cc:b8:97:3b:d3:00:92:10:97:0f:17:e8:5e:3d:
                    dc:af:8f:ef:fe:db:3e:45:1d:b4:80:0e:c8:3b:33:
                    19:e3:17:68:49:ad:d0:7e:48:a0:a2:46:13:b4:75:
                    a6:a1:bd
                Exponent: 65537 (0x10001)
        X509v3 extensions:
            X509v3 Basic Constraints: 
                CA:FALSE
            X509v3 Subject Key Identifier: 
                A8:20:6E:B9:13:41:5A:F4:DB:F2:24:01:A6:41:75:39:30:B4:51:3B
            X509v3 Authority Key Identifier: 
                keyid:CA:1B:21:9C:1E:6A:07:17:12:46:0D:B8:1B:D0:EA:45:1C:F3:AF:1D
                DirName:/CN=ProcuraCA
                serial:B9:33:96:FE:37:82:C4:FE

            X509v3 Extended Key Usage: 
                TLS Web Client Authentication
            X509v3 Key Usage: 
                Digital Signature
    Signature Algorithm: sha512WithRSAEncryption
         43:1a:41:db:97:86:d7:e5:d7:0a:8d:8a:e4:e3:20:cd:73:17:
         bf:6b:06:50:92:17:aa:5b:4a:b4:a2:33:ae:57:ae:30:81:d8:
         e0:f7:e8:c2:ba:51:cc:ef:4b:f0:20:1c:ec:18:64:ee:ad:2d:
         32:5b:81:cc:99:f7:69:00:8e:8a:2d:8e:b6:b2:e2:97:a7:e1:
         5a:fa:97:a0:8d:e9:57:c8:d3:45:2c:80:0a:f4:eb:33:02:0c:
         45:b3:6e:71:ba:30:fe:12:2e:b0:76:15:e5:1f:eb:d5:90:0b:
         73:6f:e4:ff:48:4c:dc:34:8e:6e:c5:3e:9c:df:a3:ec:8d:b2:
         54:80:d8:43:d9:86:b0:f3:c8:d8:35:64:b5:72:0f:e1:94:8a:
         b7:48:4e:65:83:97:e5:1e:77:6b:70:50:b2:12:b8:6e:8e:5b:
         e9:96:3d:99:27:9c:12:15:26:b5:4a:32:86:a7:7f:a0:fd:10:
         ba:cd:b8:36:d1:81:a3:45:cf:e5:f9:f2:e7:d9:04:99:ca:15:
         77:68:15:00:33:a9:72:72:4b:ce:c7:48:b2:23:a8:44:41:44:
         2f:cc:92:b3:b9:be:b2:74:98:ee:29:fe:4a:51:20:f3:29:89:
         78:dc:d7:09:87:be:ed:f7:be:5f:09:7b:8d:c7:8e:43:4f:4e:
         10:2e:e2:c2:6d:52:e7:aa:37:5d:1c:c1:79:ff:51:07:b9:4a:
         1d:52:5f:2a:8c:70:61:a3:a0:fa:09:0a:55:55:90:e7:ef:75:
         6e:59:65:cc:cf:13:73:11:95:b7:cb:44:fb:44:15:99:76:b8:
         ca:60:73:e4:9c:59:42:20:e8:90:fa:ff:0c:67:c3:56:ad:7d:
         4c:4f:77:5c:b0:15:1b:00:e9:41:e7:c2:a2:b3:a4:15:59:1d:
         07:74:03:7a:2e:5f:3e:8a:4a:41:bd:62:cb:44:37:47:4f:ca:
         63:45:8f:ef:04:66:8e:0e:88:36:89:4a:ef:ad:12:42:65:f6:
         d2:98:0b:05:55:d4:3b:c1:77:be:27:a2:10:38:07:98:ec:7e:
         6d:e4:3b:db:d2:fa:4e:28:a2:cd:d3:25:5d:b9:81:d0:67:86:
         6d:82:d1:aa:9e:2a:56:58:2d:c9:f9:7b:9b:eb:22:4d:04:ad:
         a5:12:6c:a0:12:5d:12:ae:36:25:30:5e:b6:83:82:74:eb:6e:
         6a:51:f9:cb:38:d7:84:84:4b:d1:a1:5c:58:58:ce:bd:15:fe:
         be:36:8c:44:ae:ed:91:7b:37:ac:bc:35:66:3d:59:ce:2c:a5:
         d4:3c:25:0b:61:3f:4d:3f:9f:1c:0e:20:13:e8:7c:01:db:a9:
         58:8b:16:3e:27:3c:3d:85
-----BEGIN CERTIFICATE-----
MIIFSDCCAzCgAwIBAgIRAPz1XR5sL1p3kZtBzQPPvLAwDQYJKoZIhvcNAQENBQAw
FDESMBAGA1UEAwwJUHJvY3VyYUNBMB4XDTIyMTEyNDEzNTgwMFoXDTMyMTEyMTEz
NTgwMFowEzERMA8GA1UEAwwIcmVtb3RvNDYwggIiMA0GCSqGSIb3DQEBAQUAA4IC
DwAwggIKAoICAQCtZnPM7IujbstWqB/qoZ9tkspSZZ5Dym8JWHWLoNsFVgXtM1OM
OuciHbbAdjwpeCCEvHs+3JGih+k3oFdozZh2QW1ntge5emOW5PsKM+Amm8DXuRvH
5zP7ZZcFjqxplusLKGe/2PMhggOzNJ/0PR0COeZMfk4wjWIf10k9tQM0JhjP3jhw
O5NDi3EO9c5Q2Em9at+a7esb+KGQhfqb85t1Y2d9LiSGJD7NdB1Cf3ujQKMVFRdj
nLnRhmlEWLzMxXYDOuINGSJvH8zNYZ5JMSSaZxIMRLh/M0pHpH8btO2tMGQAZ5e0
caJGkhaKwjP0/L+pgNUjzdwLlpe0hzLflXTVB6NH/KS1IdnSq0J3igUtrLbPEuPu
jhtwmlchTlldYHRtNS0GiYL2XNvcjQshH8XPOUCrKHLca4zu6CUAFbSqWd8r+u17
CXii53JzHwR2PqJZmnNKlwwO4j1eMCwnpdW6PeRUBJphTdG7Xp+m9IhM9qxO/yR8
t6PiWtLIeoo4gJA+GLlA9c+Npp171vAM+9gh0i2N4LJs/llWJaWMb2pB64klHFgV
ZeN9dZqh03d3i1H83Myx8NwSH3o0MnhVDDZWpgFKUyr455/ToJ8T6k3HemrMuJc7
0wCSEJcPF+hePdyvj+/+2z5FHbSADsg7MxnjF2hJrdB+SKCiRhO0daahvQIDAQAB
o4GVMIGSMAkGA1UdEwQCMAAwHQYDVR0OBBYEFKggbrkTQVr02/IkAaZBdTkwtFE7
MEQGA1UdIwQ9MDuAFMobIZweagcXEkYNuBvQ6kUc868doRikFjAUMRIwEAYDVQQD
DAlQcm9jdXJhQ0GCCQC5M5b+N4LE/jATBgNVHSUEDDAKBggrBgEFBQcDAjALBgNV
HQ8EBAMCB4AwDQYJKoZIhvcNAQENBQADggIBAEMaQduXhtfl1wqNiuTjIM1zF79r
BlCSF6pbSrSiM65XrjCB2OD36MK6UczvS/AgHOwYZO6tLTJbgcyZ92kAjootjray
4pen4Vr6l6CN6VfI00UsgAr06zMCDEWzbnG6MP4SLrB2FeUf69WQC3Nv5P9ITNw0
jm7FPpzfo+yNslSA2EPZhrDzyNg1ZLVyD+GUirdITmWDl+Ued2twULISuG6OW+mW
PZknnBIVJrVKMoanf6D9ELrNuDbRgaNFz+X58ufZBJnKFXdoFQAzqXJyS87HSLIj
qERBRC/MkrO5vrJ0mO4p/kpRIPMpiXjc1wmHvu33vl8Je43HjkNPThAu4sJtUueq
N10cwXn/UQe5Sh1SXyqMcGGjoPoJClVVkOfvdW5ZZczPE3MRlbfLRPtEFZl2uMpg
c+ScWUIg6JD6/wxnw1atfUxPd1ywFRsA6UHnwqKzpBVZHQd0A3ouXz6KSkG9YstE
N0dPymNFj+8EZo4OiDaJSu+tEkJl9tKYCwVV1DvBd74nohA4B5jsfm3kO9vS+k4o
os3TJV25gdBnhm2C0aqeKlZYLcn5e5vrIk0EraUSbKASXRKuNiUwXraDgnTrbmpR
+cs414SES9GhXFhYzr0V/r42jESu7ZF7N6y8NWY9Wc4spdQ8JQthP00/nxwOIBPo
fAHbqViLFj4nPD2F
-----END CERTIFICATE-----
