Certificate:
    Data:
        Version: 3 (0x2)
        Serial Number:
            5a:d7:40:78:b5:e0:b9:39:1a:01:bf:2c:49:d7:3f:dd
    Signature Algorithm: sha512WithRSAEncryption
        Issuer: CN=ProcuraCA
        Validity
            Not Before: Nov 24 13:56:49 2022 GMT
            Not After : Nov 21 13:56:49 2032 GMT
        Subject: CN=remoto39
        Subject Public Key Info:
            Public Key Algorithm: rsaEncryption
                Public-Key: (4096 bit)
                Modulus:
                    00:a5:6e:39:57:10:62:79:67:de:55:da:10:e2:04:
                    5c:d9:f2:a8:73:bd:a3:94:6e:9d:c8:90:73:2c:90:
                    d2:03:86:47:34:7c:4f:e0:ff:40:de:5b:9c:63:56:
                    a5:4b:2d:85:b5:b0:82:be:5c:1b:d5:b9:57:c7:51:
                    04:ec:aa:26:dc:c2:5c:a0:ea:92:4f:3e:93:4b:38:
                    29:04:31:be:ab:6f:5f:ea:c1:6b:96:71:63:71:46:
                    9f:68:31:1e:de:57:58:ad:06:e3:35:ae:b8:24:a9:
                    7c:e5:2c:26:df:0b:a7:0b:35:65:b5:ea:c8:73:57:
                    4c:bb:01:e2:06:70:f3:54:36:33:1c:22:26:a1:93:
                    ac:88:b2:09:d7:10:90:25:8c:cd:d7:06:0c:9f:bc:
                    5d:2b:25:9e:f7:2c:56:6e:5d:53:01:80:24:66:d6:
                    2a:e8:52:c6:8c:dc:ac:98:5d:45:97:df:e2:e3:b9:
                    fd:0e:4c:5f:31:0c:23:ee:54:fc:48:2d:fa:83:80:
                    18:d0:34:57:b2:0c:96:04:13:59:58:bb:76:17:c6:
                    6e:83:e0:89:04:f0:39:4a:f1:7b:77:9a:24:29:16:
                    f5:80:c2:53:a7:06:7f:a3:4d:a6:d3:61:ae:19:5d:
                    02:25:5d:b7:0e:77:fc:ab:2b:47:11:3c:7d:23:fc:
                    02:e0:ac:a4:72:3d:bc:b9:7f:6d:0f:e5:70:83:90:
                    81:ef:b3:c5:1c:41:1b:f4:28:97:f1:f9:3c:16:06:
                    e5:50:bd:9c:1b:bb:a7:d4:e7:df:02:98:10:ae:f5:
                    e4:b2:27:0b:1e:0a:24:2d:44:83:41:a1:03:e3:f0:
                    38:db:79:39:35:c8:92:77:af:a0:6d:17:2f:f7:80:
                    20:a2:43:cc:24:fe:05:0a:70:55:e8:18:b3:a1:5f:
                    3c:e9:12:c3:e6:54:85:61:56:3c:8a:a5:ef:fd:fa:
                    54:77:2b:0c:b1:38:d6:65:6c:e7:1d:8b:1e:4e:66:
                    48:41:c0:38:83:a6:9a:39:b3:ec:91:f0:bc:e3:52:
                    4e:fe:05:f2:cd:69:74:39:91:73:93:40:08:df:64:
                    16:31:83:9f:f8:c2:0d:76:44:73:3f:de:be:e7:4e:
                    28:bc:cb:b9:1f:6e:cd:6a:8b:2a:33:74:90:e4:64:
                    3d:d9:61:7e:24:f8:8d:e8:a7:71:28:fc:ac:d0:04:
                    1a:40:df:b5:29:73:a5:bf:fe:56:ff:fa:a0:d1:8d:
                    39:29:9e:59:55:07:a2:27:34:19:73:3c:7d:58:91:
                    34:22:29:30:0c:74:01:e9:86:8f:da:21:bf:01:56:
                    01:76:ca:d6:9f:ce:07:e5:0a:4f:ef:de:d8:0c:93:
                    19:8b:01
                Exponent: 65537 (0x10001)
        X509v3 extensions:
            X509v3 Basic Constraints: 
                CA:FALSE
            X509v3 Subject Key Identifier: 
                56:D3:1D:81:66:96:CB:3A:59:64:30:31:26:1F:CC:CE:48:54:31:36
            X509v3 Authority Key Identifier: 
                keyid:CA:1B:21:9C:1E:6A:07:17:12:46:0D:B8:1B:D0:EA:45:1C:F3:AF:1D
                DirName:/CN=ProcuraCA
                serial:B9:33:96:FE:37:82:C4:FE

            X509v3 Extended Key Usage: 
                TLS Web Client Authentication
            X509v3 Key Usage: 
                Digital Signature
    Signature Algorithm: sha512WithRSAEncryption
         61:31:af:6b:4c:8f:0d:12:d7:9f:e2:53:a5:9c:ee:85:62:96:
         5b:26:da:72:a0:c3:20:52:cf:5e:2a:79:65:6c:e3:bc:1e:c1:
         0a:6f:1c:6a:c7:2a:e4:9a:cf:df:cd:36:c0:fe:07:ff:2f:66:
         84:57:46:9d:f2:a3:7a:6b:51:8f:bf:7c:64:f4:20:73:56:96:
         28:f5:eb:dc:9c:f5:24:fe:37:15:a5:a2:de:e9:9c:e9:02:d4:
         c5:70:d8:3c:f2:b0:fe:44:05:f9:d5:f7:49:3f:45:f5:83:6a:
         c5:02:45:c3:94:f8:18:4e:df:14:da:54:5b:b5:e9:47:61:2c:
         4f:d0:5a:75:4e:cd:d2:a6:ff:e8:bc:be:c5:8b:e1:96:a1:08:
         0d:c5:8e:1c:f6:ae:ae:5b:e8:91:be:09:08:e3:56:33:9c:86:
         65:75:4c:98:74:88:a0:81:5a:a8:af:31:fa:d9:5a:76:8a:ca:
         0c:9b:11:34:c6:52:0d:db:cb:aa:c0:81:2c:e2:60:85:6c:1c:
         72:9f:4f:1f:0e:01:28:a2:26:cd:5f:88:e1:8a:53:e9:25:16:
         71:2c:f4:7e:00:f2:80:58:b1:25:5f:6b:73:bd:97:60:25:ab:
         fd:ee:04:af:a0:fe:b7:32:6e:e9:02:5a:9c:7d:5f:18:c6:f0:
         58:62:c9:ae:8a:a7:46:1a:6f:41:95:2c:0d:01:38:bd:89:55:
         58:f0:ad:03:83:93:93:fa:88:c4:76:9d:b9:cf:c9:ec:88:4e:
         8c:a4:1a:2c:8d:04:01:39:d4:5e:ec:64:10:ff:ec:65:46:cc:
         26:ad:08:a1:66:8a:76:ff:e9:46:9c:18:75:a2:9c:94:16:56:
         a9:cb:f9:4f:74:90:72:83:06:f6:c5:f7:78:e8:b4:01:54:b0:
         0b:20:f2:f3:d1:a6:9f:f6:12:b2:7a:a1:bc:d4:90:63:03:ef:
         18:21:b9:04:7b:54:8d:59:8a:77:52:22:0d:69:b9:d6:b2:55:
         80:77:30:fc:a3:7c:7b:49:4c:e3:d4:c4:ed:16:94:a5:da:3f:
         06:69:14:70:90:fd:0a:ba:d3:d1:7f:ba:70:31:18:2b:9f:6b:
         a1:51:b0:4b:4d:73:39:c8:cc:33:a7:07:4f:78:7e:ad:e7:6e:
         a2:90:76:91:f8:f1:98:75:50:a6:25:2b:8a:23:89:db:e5:d5:
         52:85:6f:7e:70:c5:0e:d4:8b:a5:ff:54:d2:c7:bc:c3:ef:08:
         7d:0d:80:8a:7f:60:c6:a9:e0:37:de:bd:bf:e2:5b:b2:fe:12:
         55:ee:0a:3e:85:54:8f:c4:07:0d:68:5a:eb:2b:7c:47:0d:18:
         6b:00:f5:ca:f5:43:57:83
-----BEGIN CERTIFICATE-----
MIIFRzCCAy+gAwIBAgIQWtdAeLXguTkaAb8sSdc/3TANBgkqhkiG9w0BAQ0FADAU
MRIwEAYDVQQDDAlQcm9jdXJhQ0EwHhcNMjIxMTI0MTM1NjQ5WhcNMzIxMTIxMTM1
NjQ5WjATMREwDwYDVQQDDAhyZW1vdG8zOTCCAiIwDQYJKoZIhvcNAQEBBQADggIP
ADCCAgoCggIBAKVuOVcQYnln3lXaEOIEXNnyqHO9o5RunciQcyyQ0gOGRzR8T+D/
QN5bnGNWpUsthbWwgr5cG9W5V8dRBOyqJtzCXKDqkk8+k0s4KQQxvqtvX+rBa5Zx
Y3FGn2gxHt5XWK0G4zWuuCSpfOUsJt8Lpws1ZbXqyHNXTLsB4gZw81Q2MxwiJqGT
rIiyCdcQkCWMzdcGDJ+8XSslnvcsVm5dUwGAJGbWKuhSxozcrJhdRZff4uO5/Q5M
XzEMI+5U/Egt+oOAGNA0V7IMlgQTWVi7dhfGboPgiQTwOUrxe3eaJCkW9YDCU6cG
f6NNptNhrhldAiVdtw53/KsrRxE8fSP8AuCspHI9vLl/bQ/lcIOQge+zxRxBG/Qo
l/H5PBYG5VC9nBu7p9Tn3wKYEK715LInCx4KJC1Eg0GhA+PwONt5OTXIknevoG0X
L/eAIKJDzCT+BQpwVegYs6FfPOkSw+ZUhWFWPIql7/36VHcrDLE41mVs5x2LHk5m
SEHAOIOmmjmz7JHwvONSTv4F8s1pdDmRc5NACN9kFjGDn/jCDXZEcz/evudOKLzL
uR9uzWqLKjN0kORkPdlhfiT4jeincSj8rNAEGkDftSlzpb/+Vv/6oNGNOSmeWVUH
oic0GXM8fViRNCIpMAx0AemGj9ohvwFWAXbK1p/OB+UKT+/e2AyTGYsBAgMBAAGj
gZUwgZIwCQYDVR0TBAIwADAdBgNVHQ4EFgQUVtMdgWaWyzpZZDAxJh/MzkhUMTYw
RAYDVR0jBD0wO4AUyhshnB5qBxcSRg24G9DqRRzzrx2hGKQWMBQxEjAQBgNVBAMM
CVByb2N1cmFDQYIJALkzlv43gsT+MBMGA1UdJQQMMAoGCCsGAQUFBwMCMAsGA1Ud
DwQEAwIHgDANBgkqhkiG9w0BAQ0FAAOCAgEAYTGva0yPDRLXn+JTpZzuhWKWWyba
cqDDIFLPXip5ZWzjvB7BCm8cascq5JrP3802wP4H/y9mhFdGnfKjemtRj798ZPQg
c1aWKPXr3Jz1JP43FaWi3umc6QLUxXDYPPKw/kQF+dX3ST9F9YNqxQJFw5T4GE7f
FNpUW7XpR2EsT9BadU7N0qb/6Ly+xYvhlqEIDcWOHPaurlvokb4JCONWM5yGZXVM
mHSIoIFaqK8x+tladorKDJsRNMZSDdvLqsCBLOJghWwccp9PHw4BKKImzV+I4YpT
6SUWcSz0fgDygFixJV9rc72XYCWr/e4Er6D+tzJu6QJanH1fGMbwWGLJroqnRhpv
QZUsDQE4vYlVWPCtA4OTk/qIxHaduc/J7IhOjKQaLI0EATnUXuxkEP/sZUbMJq0I
oWaKdv/pRpwYdaKclBZWqcv5T3SQcoMG9sX3eOi0AVSwCyDy89Gmn/YSsnqhvNSQ
YwPvGCG5BHtUjVmKd1IiDWm51rJVgHcw/KN8e0lM49TE7RaUpdo/BmkUcJD9CrrT
0X+6cDEYK59roVGwS01zOcjMM6cHT3h+reduopB2kfjxmHVQpiUriiOJ2+XVUoVv
fnDFDtSLpf9U0se8w+8IfQ2Ain9gxqngN969v+Jbsv4SVe4KPoVUj8QHDWha6yt8
Rw0YawD1yvVDV4M=
-----END CERTIFICATE-----
