Certificate:
    Data:
        Version: 3 (0x2)
        Serial Number:
            7d:01:d7:8c:e5:52:b0:a7:0d:2c:61:b0:59:a5:10:09
    Signature Algorithm: sha512WithRSAEncryption
        Issuer: CN=ProcuraCA
        Validity
            Not Before: Nov 24 13:57:43 2022 GMT
            Not After : Nov 21 13:57:43 2032 GMT
        Subject: CN=remoto44
        Subject Public Key Info:
            Public Key Algorithm: rsaEncryption
                Public-Key: (4096 bit)
                Modulus:
                    00:9b:33:db:cf:4c:95:39:c9:2a:3d:3d:7f:3f:f5:
                    23:4b:94:8e:c1:25:88:b2:53:06:a2:aa:48:8e:21:
                    9e:85:94:5e:07:a0:cf:48:ca:81:10:3f:2f:49:26:
                    3b:1f:98:3d:2a:0e:60:f4:01:2a:ff:60:fa:f9:93:
                    d2:a0:e7:fb:c1:6d:bb:53:cc:b1:60:39:c2:f6:bc:
                    db:7a:76:b8:9f:1d:68:09:8a:3e:d5:25:30:8c:34:
                    02:61:60:74:0f:c5:ac:18:5b:9d:65:dd:99:e4:5d:
                    ac:90:85:74:a6:cb:db:4b:9f:08:b4:4d:16:7b:32:
                    5b:65:ff:d8:13:0b:b2:32:7d:bd:2c:fe:55:ff:5f:
                    b3:82:7b:79:ec:81:c1:8d:86:76:1c:af:09:d0:93:
                    84:7a:a8:f0:92:7e:11:97:47:34:b9:15:44:b4:1e:
                    38:5e:90:c5:20:f1:6b:e8:16:fd:a3:26:ab:79:de:
                    1d:8c:e8:c1:2c:49:b7:30:0e:7e:fb:b6:99:0a:9b:
                    d3:e0:f8:b7:35:a4:66:85:30:e6:7e:84:da:8d:74:
                    ec:d1:d7:e7:0d:39:b6:a9:f8:e2:61:29:e4:d7:13:
                    bb:6f:6e:c0:f1:eb:0c:d1:7e:0b:d5:af:bc:86:25:
                    96:6d:ae:75:fc:fd:f4:fc:d7:a8:fe:33:91:87:2b:
                    fd:e9:97:4a:0f:f8:1a:0b:20:58:29:75:9f:6e:0a:
                    b1:08:8f:87:0d:74:34:d0:19:17:57:ac:8c:6c:67:
                    12:0f:38:0e:53:ca:06:9f:c1:3d:06:a0:d4:64:0e:
                    5a:54:c7:cb:45:ab:af:b0:09:c8:09:5c:20:8e:1f:
                    77:b6:82:27:91:25:8d:87:f7:e8:ac:0e:a8:2d:ae:
                    9c:4c:2b:f7:7a:2d:86:18:94:ee:a9:98:f0:f6:c6:
                    db:a0:02:d8:15:3e:b9:8b:34:34:c2:23:1f:e8:cd:
                    6e:09:71:fe:4f:7d:6f:26:25:82:38:b7:03:58:30:
                    ed:4e:27:b3:65:76:93:72:ae:00:0f:02:b0:0a:ad:
                    68:6d:91:d2:47:5e:35:ad:72:c2:6c:81:2e:c4:fb:
                    45:3c:f9:4e:b4:f0:80:26:41:57:cb:05:87:5a:67:
                    ee:f5:8d:e7:cd:b3:36:1f:95:a1:6d:00:78:46:53:
                    b1:01:3f:f8:86:86:5b:0a:a8:8f:2d:ab:fa:2d:93:
                    01:7e:50:34:f4:b1:e7:47:91:c4:7d:ae:ae:b6:41:
                    7f:fe:73:b1:f4:93:12:82:63:76:ed:dc:7c:92:5f:
                    69:31:36:17:37:50:df:53:2a:32:f6:bd:70:2a:25:
                    86:6c:1e:20:07:4b:16:0d:3f:36:94:14:75:94:1e:
                    a2:07:61
                Exponent: 65537 (0x10001)
        X509v3 extensions:
            X509v3 Basic Constraints: 
                CA:FALSE
            X509v3 Subject Key Identifier: 
                E7:85:2C:27:1F:26:57:61:B8:22:1D:59:47:FE:F4:DD:BF:C8:58:6D
            X509v3 Authority Key Identifier: 
                keyid:CA:1B:21:9C:1E:6A:07:17:12:46:0D:B8:1B:D0:EA:45:1C:F3:AF:1D
                DirName:/CN=ProcuraCA
                serial:B9:33:96:FE:37:82:C4:FE

            X509v3 Extended Key Usage: 
                TLS Web Client Authentication
            X509v3 Key Usage: 
                Digital Signature
    Signature Algorithm: sha512WithRSAEncryption
         69:93:7d:aa:71:85:ac:70:f4:6c:3e:55:ee:32:43:9c:88:86:
         45:11:e7:eb:6e:36:2e:a7:5e:7e:5c:5a:cd:17:d5:46:91:ef:
         dd:d5:55:1b:42:a8:e6:db:67:2e:fe:74:13:72:15:08:43:e2:
         54:e3:80:d1:ff:7e:47:b2:2d:02:73:8e:de:ca:cc:08:f7:76:
         e7:90:a7:20:29:f5:15:ae:88:06:ba:cf:f3:cc:88:11:e8:76:
         a7:61:bc:b3:f2:e0:de:41:19:1a:7b:62:70:13:b1:65:66:a2:
         71:26:cd:84:2d:ae:dd:68:d9:0e:94:a5:79:0c:41:bc:65:14:
         0f:49:96:31:01:69:fd:93:24:15:d6:5c:54:61:b1:ba:9b:d3:
         a1:a0:2c:f5:75:3f:77:30:cb:7d:6b:f6:2e:d9:75:e8:eb:78:
         07:d8:5c:97:71:48:d7:35:0b:f8:3c:1d:2f:26:7c:d4:c9:9f:
         b1:8a:2e:49:81:e7:81:6d:ac:3c:4d:4c:da:90:06:4a:6d:af:
         17:a4:4b:03:d9:23:b0:a5:11:ba:e0:0c:82:4d:e0:79:f3:98:
         39:c1:54:37:f3:84:3f:33:fc:ca:a7:66:e6:76:c4:16:ae:2a:
         0f:22:55:7c:13:06:4e:8b:eb:f3:fe:f9:a7:e3:3d:d3:42:72:
         00:b0:55:98:65:de:f3:97:f6:c5:3d:01:6d:ff:a0:b2:f2:6e:
         22:ff:a7:41:e2:12:e7:e3:ed:3e:ce:bf:e9:ff:5f:33:25:21:
         ff:e0:a0:bd:31:c4:72:f5:37:60:85:ee:fa:87:7e:a0:83:a7:
         35:e2:c7:8f:d3:32:55:0f:f2:23:28:55:8f:49:f3:8b:82:1a:
         18:26:98:98:8d:8b:78:ec:c5:12:10:e5:49:af:7e:ae:8f:5e:
         8c:65:91:71:1b:76:e2:fc:02:58:07:ad:9c:8c:13:9f:10:10:
         f4:6e:11:b5:40:2f:61:83:46:67:b4:32:4c:1f:6f:00:d0:55:
         03:b7:49:43:0d:68:90:bc:c2:2a:bb:38:13:b1:8b:ff:7d:0c:
         6c:46:df:18:c0:cf:e3:2f:58:1a:40:80:d1:f1:53:1a:b6:1a:
         89:e8:bb:4e:b1:5f:31:16:62:1d:0c:57:20:74:51:69:c5:22:
         b7:2d:6a:fa:fa:ef:2d:04:0c:12:22:87:7d:52:21:9a:21:bc:
         4f:9a:24:6b:29:10:25:ef:6d:ee:83:5b:42:23:f8:17:23:08:
         eb:d5:7c:4c:77:7e:02:25:59:a3:59:d7:8e:07:d2:71:83:a2:
         a8:09:3d:30:ac:1f:ab:85:df:c5:04:f4:71:86:62:ac:b9:b7:
         4b:f5:e4:00:fa:bc:3f:3f
-----BEGIN CERTIFICATE-----
MIIFRzCCAy+gAwIBAgIQfQHXjOVSsKcNLGGwWaUQCTANBgkqhkiG9w0BAQ0FADAU
MRIwEAYDVQQDDAlQcm9jdXJhQ0EwHhcNMjIxMTI0MTM1NzQzWhcNMzIxMTIxMTM1
NzQzWjATMREwDwYDVQQDDAhyZW1vdG80NDCCAiIwDQYJKoZIhvcNAQEBBQADggIP
ADCCAgoCggIBAJsz289MlTnJKj09fz/1I0uUjsEliLJTBqKqSI4hnoWUXgegz0jK
gRA/L0kmOx+YPSoOYPQBKv9g+vmT0qDn+8Ftu1PMsWA5wva823p2uJ8daAmKPtUl
MIw0AmFgdA/FrBhbnWXdmeRdrJCFdKbL20ufCLRNFnsyW2X/2BMLsjJ9vSz+Vf9f
s4J7eeyBwY2GdhyvCdCThHqo8JJ+EZdHNLkVRLQeOF6QxSDxa+gW/aMmq3neHYzo
wSxJtzAOfvu2mQqb0+D4tzWkZoUw5n6E2o107NHX5w05tqn44mEp5NcTu29uwPHr
DNF+C9WvvIYllm2udfz99PzXqP4zkYcr/emXSg/4GgsgWCl1n24KsQiPhw10NNAZ
F1esjGxnEg84DlPKBp/BPQag1GQOWlTHy0Wrr7AJyAlcII4fd7aCJ5EljYf36KwO
qC2unEwr93othhiU7qmY8PbG26AC2BU+uYs0NMIjH+jNbglx/k99byYlgji3A1gw
7U4ns2V2k3KuAA8CsAqtaG2R0kdeNa1ywmyBLsT7RTz5TrTwgCZBV8sFh1pn7vWN
582zNh+VoW0AeEZTsQE/+IaGWwqojy2r+i2TAX5QNPSx50eRxH2urrZBf/5zsfST
EoJjdu3cfJJfaTE2FzdQ31MqMva9cColhmweIAdLFg0/NpQUdZQeogdhAgMBAAGj
gZUwgZIwCQYDVR0TBAIwADAdBgNVHQ4EFgQU54UsJx8mV2G4Ih1ZR/703b/IWG0w
RAYDVR0jBD0wO4AUyhshnB5qBxcSRg24G9DqRRzzrx2hGKQWMBQxEjAQBgNVBAMM
CVByb2N1cmFDQYIJALkzlv43gsT+MBMGA1UdJQQMMAoGCCsGAQUFBwMCMAsGA1Ud
DwQEAwIHgDANBgkqhkiG9w0BAQ0FAAOCAgEAaZN9qnGFrHD0bD5V7jJDnIiGRRHn
6242LqdeflxazRfVRpHv3dVVG0Ko5ttnLv50E3IVCEPiVOOA0f9+R7ItAnOO3srM
CPd255CnICn1Fa6IBrrP88yIEeh2p2G8s/Lg3kEZGnticBOxZWaicSbNhC2u3WjZ
DpSleQxBvGUUD0mWMQFp/ZMkFdZcVGGxupvToaAs9XU/dzDLfWv2Ltl16Ot4B9hc
l3FI1zUL+DwdLyZ81MmfsYouSYHngW2sPE1M2pAGSm2vF6RLA9kjsKURuuAMgk3g
efOYOcFUN/OEPzP8yqdm5nbEFq4qDyJVfBMGTovr8/75p+M900JyALBVmGXe85f2
xT0Bbf+gsvJuIv+nQeIS5+PtPs6/6f9fMyUh/+CgvTHEcvU3YIXu+od+oIOnNeLH
j9MyVQ/yIyhVj0nzi4IaGCaYmI2LeOzFEhDlSa9+ro9ejGWRcRt24vwCWAetnIwT
nxAQ9G4RtUAvYYNGZ7QyTB9vANBVA7dJQw1okLzCKrs4E7GL/30MbEbfGMDP4y9Y
GkCA0fFTGrYaiei7TrFfMRZiHQxXIHRRacUity1q+vrvLQQMEiKHfVIhmiG8T5ok
aykQJe9t7oNbQiP4FyMI69V8THd+AiVZo1nXjgfScYOiqAk9MKwfq4XfxQT0cYZi
rLm3S/XkAPq8Pz8=
-----END CERTIFICATE-----
