Certificate:
    Data:
        Version: 3 (0x2)
        Serial Number:
            47:34:2f:8a:f3:41:2f:b7:44:9e:d5:16:27:08:73:81
    Signature Algorithm: sha512WithRSAEncryption
        Issuer: CN=ProcuraCA
        Validity
            Not Before: Nov 24 13:59:40 2022 GMT
            Not After : Nov 21 13:59:40 2032 GMT
        Subject: CN=telecamera36
        Subject Public Key Info:
            Public Key Algorithm: rsaEncryption
                Public-Key: (4096 bit)
                Modulus:
                    00:d4:1b:3c:de:a4:25:9f:84:15:08:9d:5d:6d:0f:
                    41:57:6a:ae:6a:c0:0e:f9:40:df:ed:0d:7d:fc:2b:
                    f9:e1:14:c1:5a:c7:82:86:18:46:66:e6:f8:de:38:
                    ac:5a:2a:d9:ff:a2:46:ea:7f:71:85:d7:2d:ac:06:
                    6a:36:df:c3:f5:ec:e6:fc:2b:3c:98:b4:b9:23:53:
                    73:27:b3:47:d2:7b:d0:86:c9:e8:b3:fd:6b:8e:bd:
                    74:5d:15:c4:a4:46:98:12:60:bf:21:e6:87:17:69:
                    cd:be:dc:00:69:85:4a:9d:00:f8:45:78:43:f5:43:
                    43:3b:5c:40:59:1b:59:ab:e8:03:98:35:16:1a:42:
                    d7:46:a2:9b:9d:66:f7:09:48:91:b0:18:29:07:66:
                    48:3f:e1:71:bd:e1:63:3d:ee:04:08:71:e8:69:49:
                    fe:4f:e7:f1:81:05:b2:45:5d:ad:ba:f5:2b:d2:8b:
                    58:93:22:c8:5e:f6:2b:ef:ab:94:81:85:67:7e:a3:
                    12:61:d9:6a:bd:29:ac:d0:c9:6f:8f:25:2f:3c:90:
                    6d:a8:84:d0:53:90:c6:8b:d5:f9:d9:7a:c0:5e:91:
                    d4:17:9e:38:71:b2:63:5e:4d:7e:31:9c:2a:2f:ac:
                    af:c9:a3:fc:dc:da:08:5e:82:f4:e2:6e:c9:2a:e3:
                    b0:b7:ff:15:cf:73:bf:f6:36:a8:c3:e1:85:7c:9d:
                    99:1e:9a:b8:ea:34:2b:7f:7d:71:b7:e0:56:f3:8d:
                    0d:21:f6:fa:24:7f:3e:77:fa:d2:d1:ed:63:97:fa:
                    53:b5:a2:2d:f3:d6:fa:e1:7d:3b:22:13:0d:62:22:
                    9c:58:fd:f3:7d:ff:ce:72:df:e9:ac:c4:83:a0:a1:
                    70:a5:c3:9a:3a:d4:08:a9:5f:9e:1f:22:d7:5f:aa:
                    88:8f:74:3e:87:c1:b1:1b:08:25:d7:6a:7a:06:13:
                    c4:5e:53:74:cc:b8:9d:0e:25:a7:f5:1b:f6:ce:3b:
                    b0:b5:29:84:37:ca:a1:cb:db:6c:b0:65:73:29:3a:
                    c1:70:6f:84:e6:3f:99:5b:ad:22:d6:74:c9:af:69:
                    da:b6:a4:13:7a:01:69:f1:c1:b2:af:f9:d1:37:51:
                    8a:90:a8:6e:d1:27:5c:5d:97:d2:27:8b:51:d4:87:
                    25:ff:84:42:71:ab:e4:30:86:a0:6f:de:48:1b:b8:
                    be:93:0e:b7:87:a7:5d:2b:ad:63:0c:79:c8:e7:14:
                    e2:a2:cd:bf:67:e5:ec:15:88:b9:b1:e0:df:38:4c:
                    87:de:92:59:01:9c:a7:6c:5e:3c:48:d1:94:1c:e8:
                    5d:0c:e3:e6:bc:6d:19:1c:89:c3:2a:6a:ee:0d:00:
                    30:75:6d
                Exponent: 65537 (0x10001)
        X509v3 extensions:
            X509v3 Basic Constraints: 
                CA:FALSE
            X509v3 Subject Key Identifier: 
                F8:26:F9:C0:B3:8A:C5:B2:1A:94:8A:75:8C:F3:FC:4C:F1:5A:84:E8
            X509v3 Authority Key Identifier: 
                keyid:CA:1B:21:9C:1E:6A:07:17:12:46:0D:B8:1B:D0:EA:45:1C:F3:AF:1D
                DirName:/CN=ProcuraCA
                serial:B9:33:96:FE:37:82:C4:FE

            X509v3 Extended Key Usage: 
                TLS Web Client Authentication
            X509v3 Key Usage: 
                Digital Signature
    Signature Algorithm: sha512WithRSAEncryption
         b8:40:81:0a:96:b4:aa:31:23:bb:8b:54:9f:52:9a:64:ab:2a:
         2f:b9:c0:b0:09:a3:eb:4f:47:e3:4c:fb:15:57:8a:75:29:47:
         fe:c9:59:e0:c3:ec:bf:22:50:2f:c8:3f:d4:cf:a0:fb:8b:f1:
         ec:7b:3c:8d:00:b9:82:47:5c:8d:01:86:5a:21:2f:ee:b1:fe:
         54:2e:51:81:a8:1b:90:36:f2:73:e2:84:a3:02:58:70:d2:9f:
         bf:a5:0f:32:83:69:b4:d4:b3:f8:97:93:52:62:df:74:2d:8b:
         eb:91:9a:df:bf:f0:69:bf:79:1f:f1:f0:10:9a:d2:6b:c5:2e:
         72:52:8d:8e:bc:68:34:8a:b0:84:8a:26:d3:e8:99:49:61:f8:
         55:d3:ba:39:11:66:64:b2:e7:4e:2d:8b:15:c0:26:51:b1:34:
         8f:c3:1f:e2:c4:21:91:17:07:4c:b5:75:a3:24:9a:bb:69:23:
         bb:6a:ed:db:aa:c2:5a:d2:49:f5:44:8f:6d:03:a7:22:b5:75:
         48:4d:db:d6:08:e7:3c:36:e9:83:57:85:ae:04:d4:19:7d:47:
         51:07:17:21:65:a7:43:e1:c5:62:1a:a9:bb:5b:9b:8e:2c:f1:
         46:a4:fe:7a:2a:45:2a:df:bd:c3:dd:e8:90:9c:f6:b4:00:a9:
         5b:b0:24:59:f5:14:37:ab:7b:ee:b8:b1:77:b1:d3:24:17:a0:
         ee:9c:0b:90:5b:47:4d:07:f5:44:16:bb:23:4b:ef:29:6f:e4:
         94:bd:6e:69:cb:7d:20:fa:39:22:29:ca:eb:27:13:38:a4:a1:
         45:6d:ce:a4:89:cc:db:c2:29:df:19:85:e5:cd:28:04:9a:1e:
         b9:e6:71:77:22:b7:6a:f5:06:7e:c6:99:b4:81:29:8b:9e:34:
         39:58:5c:46:aa:f5:fc:b8:45:c4:90:85:06:85:fa:52:57:2b:
         f1:cc:be:72:bf:21:c5:a2:64:cc:44:d0:29:89:d8:1b:5d:38:
         c1:55:2a:bc:2e:af:7c:71:d8:13:17:3f:c5:1f:ce:fe:7d:59:
         c6:33:88:7a:57:32:0a:e7:9b:06:6c:fd:31:41:85:c7:19:a0:
         9f:4b:41:90:d1:9a:a9:fa:cf:c1:86:0e:4f:39:a1:2e:2e:7a:
         6f:b5:e6:6e:03:3e:89:74:b9:77:b9:c1:fd:c5:6d:83:06:10:
         b8:f6:45:1e:62:af:be:20:2c:dc:4e:8a:ce:d7:fb:9e:d4:5f:
         b8:0c:15:2e:29:ed:8c:69:b3:9f:ea:c2:94:6a:82:68:c8:bb:
         81:dd:e5:93:af:5d:1b:3d:f9:e9:8b:45:ef:d0:0b:d1:70:24:
         b1:87:42:0c:5b:3a:44:8c
-----BEGIN CERTIFICATE-----
MIIFSzCCAzOgAwIBAgIQRzQvivNBL7dEntUWJwhzgTANBgkqhkiG9w0BAQ0FADAU
MRIwEAYDVQQDDAlQcm9jdXJhQ0EwHhcNMjIxMTI0MTM1OTQwWhcNMzIxMTIxMTM1
OTQwWjAXMRUwEwYDVQQDDAx0ZWxlY2FtZXJhMzYwggIiMA0GCSqGSIb3DQEBAQUA
A4ICDwAwggIKAoICAQDUGzzepCWfhBUInV1tD0FXaq5qwA75QN/tDX38K/nhFMFa
x4KGGEZm5vjeOKxaKtn/okbqf3GF1y2sBmo238P17Ob8KzyYtLkjU3Mns0fSe9CG
yeiz/WuOvXRdFcSkRpgSYL8h5ocXac2+3ABphUqdAPhFeEP1Q0M7XEBZG1mr6AOY
NRYaQtdGopudZvcJSJGwGCkHZkg/4XG94WM97gQIcehpSf5P5/GBBbJFXa269SvS
i1iTIshe9ivvq5SBhWd+oxJh2Wq9KazQyW+PJS88kG2ohNBTkMaL1fnZesBekdQX
njhxsmNeTX4xnCovrK/Jo/zc2ghegvTibskq47C3/xXPc7/2NqjD4YV8nZkemrjq
NCt/fXG34FbzjQ0h9vokfz53+tLR7WOX+lO1oi3z1vrhfTsiEw1iIpxY/fN9/85y
3+msxIOgoXClw5o61AipX54fItdfqoiPdD6HwbEbCCXXanoGE8ReU3TMuJ0OJaf1
G/bOO7C1KYQ3yqHL22ywZXMpOsFwb4TmP5lbrSLWdMmvadq2pBN6AWnxwbKv+dE3
UYqQqG7RJ1xdl9Ini1HUhyX/hEJxq+QwhqBv3kgbuL6TDreHp10rrWMMecjnFOKi
zb9n5ewViLmx4N84TIfeklkBnKdsXjxI0ZQc6F0M4+a8bRkcicMqau4NADB1bQID
AQABo4GVMIGSMAkGA1UdEwQCMAAwHQYDVR0OBBYEFPgm+cCzisWyGpSKdYzz/Ezx
WoToMEQGA1UdIwQ9MDuAFMobIZweagcXEkYNuBvQ6kUc868doRikFjAUMRIwEAYD
VQQDDAlQcm9jdXJhQ0GCCQC5M5b+N4LE/jATBgNVHSUEDDAKBggrBgEFBQcDAjAL
BgNVHQ8EBAMCB4AwDQYJKoZIhvcNAQENBQADggIBALhAgQqWtKoxI7uLVJ9SmmSr
Ki+5wLAJo+tPR+NM+xVXinUpR/7JWeDD7L8iUC/IP9TPoPuL8ex7PI0AuYJHXI0B
hlohL+6x/lQuUYGoG5A28nPihKMCWHDSn7+lDzKDabTUs/iXk1Ji33Qti+uRmt+/
8Gm/eR/x8BCa0mvFLnJSjY68aDSKsISKJtPomUlh+FXTujkRZmSy504tixXAJlGx
NI/DH+LEIZEXB0y1daMkmrtpI7tq7duqwlrSSfVEj20DpyK1dUhN29YI5zw26YNX
ha4E1Bl9R1EHFyFlp0PhxWIaqbtbm44s8Uak/noqRSrfvcPd6JCc9rQAqVuwJFn1
FDere+64sXex0yQXoO6cC5BbR00H9UQWuyNL7ylv5JS9bmnLfSD6OSIpyusnEzik
oUVtzqSJzNvCKd8ZheXNKASaHrnmcXcit2r1Bn7GmbSBKYueNDlYXEaq9fy4RcSQ
hQaF+lJXK/HMvnK/IcWiZMxE0CmJ2BtdOMFVKrwur3xx2BMXP8Ufzv59WcYziHpX
MgrnmwZs/TFBhccZoJ9LQZDRmqn6z8GGDk85oS4uem+15m4DPol0uXe5wf3FbYMG
ELj2RR5ir74gLNxOis7X+57UX7gMFS4p7Yxps5/qwpRqgmjIu4Hd5ZOvXRs9+emL
Re/QC9FwJLGHQgxbOkSM
-----END CERTIFICATE-----
