Certificate:
    Data:
        Version: 3 (0x2)
        Serial Number:
            17:8b:30:74:29:b2:fd:5c:20:18:a9:64:b6:b5:0b:e9
    Signature Algorithm: sha512WithRSAEncryption
        Issuer: CN=ProcuraCA
        Validity
            Not Before: Nov 24 14:00:07 2022 GMT
            Not After : Nov 21 14:00:07 2032 GMT
        Subject: CN=telecamera39
        Subject Public Key Info:
            Public Key Algorithm: rsaEncryption
                Public-Key: (4096 bit)
                Modulus:
                    00:bf:aa:91:51:0a:0d:db:48:3a:9c:b9:da:6a:d7:
                    b3:36:e2:d1:30:c5:1f:e8:3b:5a:91:46:7c:5b:01:
                    c6:5b:60:65:bb:41:5c:22:db:5f:e7:08:c3:44:6f:
                    bf:cc:b1:19:2e:77:4f:34:97:ab:6c:a5:a0:b3:b1:
                    f2:42:64:f8:5a:20:7b:76:ca:12:78:63:f1:a3:89:
                    e7:6f:0a:27:2d:71:f4:35:7e:ed:ce:c3:af:ef:69:
                    66:51:df:7c:02:30:95:de:3f:97:68:aa:65:ff:c0:
                    8c:33:97:71:44:e0:e9:f5:6b:9b:69:bb:17:21:d0:
                    6a:9d:fe:13:48:40:2c:e3:c8:99:38:1a:19:cb:ad:
                    7c:f2:db:6c:6f:d8:96:75:42:b7:60:c2:0b:74:67:
                    a5:2e:bf:47:6a:dc:21:d4:1e:50:54:ed:11:28:00:
                    71:14:d0:71:81:16:de:3c:2d:5b:ba:c0:02:24:1d:
                    f7:c4:8a:58:f7:4c:8d:b7:6c:87:36:91:e1:0e:8a:
                    69:d5:1b:ae:3d:07:c2:7e:7e:db:e7:2d:5a:20:0d:
                    4f:34:7c:92:c7:71:e2:b2:0e:6a:df:48:f9:ab:fe:
                    2b:83:af:a7:f1:4e:92:ca:7e:ae:24:fe:b2:fd:ce:
                    61:64:4b:17:87:84:64:31:0d:2e:51:b2:a5:a2:a6:
                    fe:36:65:bb:78:c1:78:f5:72:f4:93:c5:3b:47:d2:
                    92:83:a1:e3:2c:63:fe:ac:da:8e:54:25:14:55:3e:
                    8e:0f:39:d0:5d:09:fc:15:94:c7:9f:5e:e9:a6:d1:
                    88:e7:78:96:3f:c8:02:f9:1b:b4:d4:46:25:d4:97:
                    e2:9a:4e:6d:d7:99:cd:7e:11:f4:9f:c4:aa:94:ec:
                    4a:69:08:5f:be:a3:b2:37:0e:49:e6:9a:a0:2a:79:
                    34:00:bd:3e:b0:91:51:53:70:41:aa:a2:51:21:af:
                    e6:f3:25:c5:62:f9:41:2f:1a:78:9e:c5:14:e1:57:
                    e9:21:2b:66:e3:59:01:c7:d5:38:63:51:c4:5d:b6:
                    78:3d:d3:63:be:d7:c0:fb:c6:11:13:fa:4b:3b:e2:
                    01:38:26:08:69:67:f5:3c:3c:d6:73:32:6d:a1:12:
                    a6:49:71:50:bf:7c:70:88:a6:bd:6e:7a:45:2d:87:
                    ac:33:50:c1:7f:8f:66:e6:52:95:b5:15:ba:a4:3b:
                    31:4f:57:3a:d4:3d:dd:41:d0:22:a8:16:f4:97:a1:
                    c6:d5:3b:ad:b3:78:bd:dd:db:44:ff:d0:53:c1:21:
                    47:d0:af:da:b9:34:51:92:cc:b2:09:b0:d8:13:f9:
                    7b:84:88:ef:92:f5:d0:74:a3:a7:53:dc:c8:04:ad:
                    d4:1a:51
                Exponent: 65537 (0x10001)
        X509v3 extensions:
            X509v3 Basic Constraints: 
                CA:FALSE
            X509v3 Subject Key Identifier: 
                3C:00:5A:15:A9:27:24:C2:BF:37:90:4D:31:F2:00:77:6F:0A:FA:35
            X509v3 Authority Key Identifier: 
                keyid:CA:1B:21:9C:1E:6A:07:17:12:46:0D:B8:1B:D0:EA:45:1C:F3:AF:1D
                DirName:/CN=ProcuraCA
                serial:B9:33:96:FE:37:82:C4:FE

            X509v3 Extended Key Usage: 
                TLS Web Client Authentication
            X509v3 Key Usage: 
                Digital Signature
    Signature Algorithm: sha512WithRSAEncryption
         39:5d:ad:88:86:4e:2b:15:5a:f6:c6:ce:c9:3f:eb:33:22:dd:
         87:37:c1:00:d4:b1:7b:2f:4b:15:d1:d7:74:85:95:65:60:28:
         15:09:b5:04:e1:08:74:60:83:55:46:c5:c7:36:6f:b0:b0:47:
         15:96:08:d8:25:ce:17:70:79:b7:57:cf:14:fa:6e:9c:08:8b:
         87:ef:17:78:00:ec:e2:0d:27:c9:d3:e4:dd:fe:fc:08:f1:90:
         46:44:46:0f:72:32:46:42:7b:15:8c:59:3d:0c:98:ec:47:07:
         85:dd:f3:ad:a9:4e:77:ba:68:17:df:65:b8:b1:14:08:7d:fc:
         73:ab:a0:6d:6d:99:46:b4:15:7f:22:57:70:b9:a1:09:59:e7:
         4b:8b:6f:bf:01:ec:48:2d:45:65:ef:57:19:be:f7:d2:30:fd:
         c9:a5:18:51:5f:34:a5:70:50:a4:1e:87:68:69:e4:9f:8a:07:
         15:9c:b2:38:9e:7f:71:80:48:5e:c0:1a:79:2f:9a:97:ff:c5:
         dc:5f:5c:7e:c0:11:dd:8c:be:e4:68:22:75:7b:38:89:83:6e:
         8b:09:79:46:4e:5c:47:1f:28:54:71:91:40:82:29:4a:10:f3:
         34:e7:94:4e:9a:3f:e3:31:ca:c6:dc:1e:e7:b5:c8:d2:79:3f:
         e5:d1:0e:d3:89:12:9f:b1:e8:74:cf:9c:e6:74:5b:fc:0a:06:
         ac:15:34:c0:c7:43:82:eb:89:37:1c:c6:81:22:6f:fe:04:ae:
         1f:80:03:08:4d:57:da:d2:df:1d:23:d5:a0:7e:74:3b:53:4a:
         81:b0:b3:f9:ce:d0:f5:fb:1d:df:8d:c0:7d:0f:89:c2:7d:4b:
         fc:21:7f:cc:9e:74:e6:23:26:d5:31:cc:17:a2:d9:59:70:c1:
         6b:11:27:33:d3:59:05:db:69:a0:75:90:2a:2b:a9:25:39:1b:
         dc:ba:7a:fb:ac:97:37:14:e8:ff:7c:3a:94:ed:72:63:1b:41:
         ab:e0:a0:5e:13:de:16:74:a4:0c:45:12:77:2e:6b:ce:53:45:
         73:87:6b:c0:78:34:4c:59:3c:0f:a9:bc:8e:2d:f1:e0:0d:48:
         62:58:08:8e:93:66:05:26:af:ea:95:83:7a:47:11:f9:2d:d4:
         7a:ca:d8:83:48:8f:eb:ed:e2:14:76:7a:fd:bf:51:31:9d:a8:
         87:76:09:d9:79:ff:3f:7f:c9:6a:b7:7c:4c:e2:62:62:4c:28:
         c8:2a:08:dd:71:11:2f:13:f0:47:11:54:cd:ac:28:78:29:0c:
         91:d3:6a:4a:45:bf:99:5b:35:de:89:a2:c2:69:89:ce:18:56:
         49:61:d2:b2:96:17:07:c6
-----BEGIN CERTIFICATE-----
MIIFSzCCAzOgAwIBAgIQF4swdCmy/VwgGKlktrUL6TANBgkqhkiG9w0BAQ0FADAU
MRIwEAYDVQQDDAlQcm9jdXJhQ0EwHhcNMjIxMTI0MTQwMDA3WhcNMzIxMTIxMTQw
MDA3WjAXMRUwEwYDVQQDDAx0ZWxlY2FtZXJhMzkwggIiMA0GCSqGSIb3DQEBAQUA
A4ICDwAwggIKAoICAQC/qpFRCg3bSDqcudpq17M24tEwxR/oO1qRRnxbAcZbYGW7
QVwi21/nCMNEb7/MsRkud080l6tspaCzsfJCZPhaIHt2yhJ4Y/GjiedvCictcfQ1
fu3Ow6/vaWZR33wCMJXeP5doqmX/wIwzl3FE4On1a5tpuxch0Gqd/hNIQCzjyJk4
GhnLrXzy22xv2JZ1Qrdgwgt0Z6Uuv0dq3CHUHlBU7REoAHEU0HGBFt48LVu6wAIk
HffEilj3TI23bIc2keEOimnVG649B8J+ftvnLVogDU80fJLHceKyDmrfSPmr/iuD
r6fxTpLKfq4k/rL9zmFkSxeHhGQxDS5RsqWipv42Zbt4wXj1cvSTxTtH0pKDoeMs
Y/6s2o5UJRRVPo4POdBdCfwVlMefXumm0YjneJY/yAL5G7TURiXUl+KaTm3Xmc1+
EfSfxKqU7EppCF++o7I3DknmmqAqeTQAvT6wkVFTcEGqolEhr+bzJcVi+UEvGnie
xRThV+khK2bjWQHH1ThjUcRdtng902O+18D7xhET+ks74gE4JghpZ/U8PNZzMm2h
EqZJcVC/fHCIpr1uekUth6wzUMF/j2bmUpW1FbqkOzFPVzrUPd1B0CKoFvSXocbV
O62zeL3d20T/0FPBIUfQr9q5NFGSzLIJsNgT+XuEiO+S9dB0o6dT3MgErdQaUQID
AQABo4GVMIGSMAkGA1UdEwQCMAAwHQYDVR0OBBYEFDwAWhWpJyTCvzeQTTHyAHdv
Cvo1MEQGA1UdIwQ9MDuAFMobIZweagcXEkYNuBvQ6kUc868doRikFjAUMRIwEAYD
VQQDDAlQcm9jdXJhQ0GCCQC5M5b+N4LE/jATBgNVHSUEDDAKBggrBgEFBQcDAjAL
BgNVHQ8EBAMCB4AwDQYJKoZIhvcNAQENBQADggIBADldrYiGTisVWvbGzsk/6zMi
3Yc3wQDUsXsvSxXR13SFlWVgKBUJtQThCHRgg1VGxcc2b7CwRxWWCNglzhdwebdX
zxT6bpwIi4fvF3gA7OINJ8nT5N3+/AjxkEZERg9yMkZCexWMWT0MmOxHB4Xd862p
Tne6aBffZbixFAh9/HOroG1tmUa0FX8iV3C5oQlZ50uLb78B7EgtRWXvVxm+99Iw
/cmlGFFfNKVwUKQeh2hp5J+KBxWcsjief3GASF7AGnkvmpf/xdxfXH7AEd2MvuRo
InV7OImDbosJeUZOXEcfKFRxkUCCKUoQ8zTnlE6aP+MxysbcHue1yNJ5P+XRDtOJ
Ep+x6HTPnOZ0W/wKBqwVNMDHQ4LriTccxoEib/4Erh+AAwhNV9rS3x0j1aB+dDtT
SoGws/nO0PX7Hd+NwH0PicJ9S/whf8yedOYjJtUxzBei2VlwwWsRJzPTWQXbaaB1
kCorqSU5G9y6evuslzcU6P98OpTtcmMbQavgoF4T3hZ0pAxFEncua85TRXOHa8B4
NExZPA+pvI4t8eANSGJYCI6TZgUmr+qVg3pHEfkt1HrK2INIj+vt4hR2ev2/UTGd
qId2Cdl5/z9/yWq3fEziYmJMKMgqCN1xES8T8EcRVM2sKHgpDJHTakpFv5lbNd6J
osJpic4YVklh0rKWFwfG
-----END CERTIFICATE-----
