Certificate:
    Data:
        Version: 3 (0x2)
        Serial Number:
            67:1b:3a:df:d3:a1:ae:84:46:e7:bc:61:dd:c1:b4:6b
    Signature Algorithm: sha512WithRSAEncryption
        Issuer: CN=ProcuraCA
        Validity
            Not Before: Nov 24 14:01:20 2022 GMT
            Not After : Nov 21 14:01:20 2032 GMT
        Subject: CN=telecamera45
        Subject Public Key Info:
            Public Key Algorithm: rsaEncryption
                Public-Key: (4096 bit)
                Modulus:
                    00:c9:ac:e0:ec:df:48:82:95:80:4d:29:18:48:c4:
                    8a:52:73:b5:ba:1a:57:95:30:71:aa:f0:b0:d8:8f:
                    1c:69:f2:bd:79:eb:8d:45:20:6c:9b:a3:ca:55:3f:
                    7a:68:47:f4:8a:32:c4:91:7a:bb:0a:f0:40:47:5f:
                    fc:8a:51:ca:43:cf:70:c6:6c:ed:81:1b:b4:7a:87:
                    39:d6:52:b2:6a:eb:2d:99:16:ba:af:6c:68:7d:35:
                    c5:af:81:b0:3b:80:cb:2d:94:62:1d:83:df:c6:fc:
                    c3:78:c1:9e:4a:08:94:4f:98:a5:09:7f:ab:03:b0:
                    59:5e:6d:8d:cb:1a:4e:69:25:e4:c9:57:44:fb:59:
                    14:a0:91:f9:38:ed:97:6d:be:6f:9f:2d:40:b0:19:
                    e5:8a:37:42:23:f5:c1:e1:fc:50:8c:b6:88:f2:be:
                    ae:0b:cb:d1:1c:1f:82:4c:2e:86:2b:38:2d:53:b5:
                    05:1e:cf:6c:be:43:b9:0b:eb:71:0e:97:b1:17:4a:
                    9d:67:c6:f3:d7:4e:4d:50:58:9c:d9:71:8c:68:11:
                    ed:d7:a7:d4:4a:65:ec:01:3c:32:1c:2a:c9:05:a0:
                    65:89:07:aa:dd:61:84:6c:a9:39:40:4e:ce:8b:83:
                    72:bb:08:16:34:d8:58:5d:38:00:85:62:ee:d5:f2:
                    1f:cb:9a:62:26:ce:89:4c:87:fa:b9:48:7c:19:b2:
                    c6:35:31:0e:5c:d9:77:fc:31:3c:c6:4a:ec:60:93:
                    2e:be:cb:3f:c2:68:55:01:8d:33:7b:4d:f7:0a:69:
                    34:18:b8:a3:11:3b:87:1a:70:7d:4f:d3:ee:63:b1:
                    cf:2d:2f:1b:8a:5b:c5:ce:49:e8:da:5d:3a:6e:cf:
                    6b:e3:ff:e5:ac:d0:c9:48:8a:37:f7:b7:71:56:06:
                    58:2d:4e:c9:4c:8b:4b:6c:ff:e3:15:cf:11:5a:dd:
                    9d:7f:5c:42:61:09:5d:ca:fd:6c:16:88:e3:7e:ae:
                    af:b0:fe:ce:90:b3:e5:78:bc:b8:d6:40:0c:ed:d1:
                    9b:6b:c6:96:63:42:97:12:2e:6a:dd:51:fb:71:29:
                    0a:29:7b:3e:22:d6:56:52:84:04:4b:5b:47:eb:e6:
                    68:5a:92:2a:1b:c9:7c:50:08:2f:d5:c6:73:e5:f1:
                    4b:57:21:0c:0d:85:58:31:8b:7c:11:5b:f4:eb:63:
                    f1:5a:25:40:84:df:60:23:c3:35:c2:17:50:71:f0:
                    a5:67:32:74:23:6d:c3:f5:53:8f:b6:15:49:4f:fc:
                    8d:0c:ec:40:ba:ed:8c:db:72:10:1d:f9:ba:53:97:
                    fb:0b:c3:a0:45:dc:02:3a:10:87:0a:a1:71:72:fb:
                    af:12:4b
                Exponent: 65537 (0x10001)
        X509v3 extensions:
            X509v3 Basic Constraints: 
                CA:FALSE
            X509v3 Subject Key Identifier: 
                0E:65:98:82:6D:6E:0F:C3:CD:47:55:05:47:61:90:73:F6:B3:0F:E5
            X509v3 Authority Key Identifier: 
                keyid:CA:1B:21:9C:1E:6A:07:17:12:46:0D:B8:1B:D0:EA:45:1C:F3:AF:1D
                DirName:/CN=ProcuraCA
                serial:B9:33:96:FE:37:82:C4:FE

            X509v3 Extended Key Usage: 
                TLS Web Client Authentication
            X509v3 Key Usage: 
                Digital Signature
    Signature Algorithm: sha512WithRSAEncryption
         59:f3:c6:ce:8c:31:d6:db:72:c9:7d:e3:3f:fd:82:0b:22:b7:
         0f:4b:c1:f5:20:dd:f6:07:2a:6b:da:f3:62:f7:40:2e:63:1b:
         0f:83:6a:81:5a:9f:b7:89:b2:14:5f:8c:49:13:38:e4:1c:58:
         16:49:9e:c0:25:a6:58:aa:7c:d6:c1:a9:bd:43:08:93:31:f6:
         a7:ea:af:64:a5:81:36:33:74:ec:46:ba:21:9c:49:9c:91:79:
         2b:a6:02:85:f8:5f:ec:21:5f:8e:8b:5c:02:82:40:e3:ad:e9:
         dd:60:b3:62:6d:97:54:21:20:2f:1e:2e:1f:21:e2:54:5e:96:
         73:5e:b1:33:8f:41:f4:12:f4:c4:c1:71:b9:d9:63:8b:d1:67:
         74:ae:d3:b8:74:90:aa:e9:88:2b:47:4e:1c:c6:0f:23:73:89:
         19:1c:71:85:8b:74:da:79:0d:e7:41:2e:84:36:2a:de:d0:3e:
         ca:f4:91:41:de:40:56:7a:7a:9b:65:b6:2d:8d:be:83:46:ef:
         14:f7:d9:b7:6d:fc:0c:36:01:4a:18:1f:de:48:d3:79:77:8e:
         a4:83:6d:79:cd:c2:4a:5b:f9:cf:0c:8e:7b:0d:82:de:d0:bf:
         ac:db:35:77:45:0b:db:a8:0e:49:6a:c4:30:61:a6:b5:95:ee:
         dd:cb:3c:b4:90:1a:b4:55:f0:8a:29:f2:90:57:fa:c1:27:9f:
         be:1b:01:35:53:9c:b0:84:57:5b:52:89:92:13:24:ec:a1:4d:
         85:45:80:1f:ed:ee:e5:4a:64:16:14:7d:6d:4a:7d:d0:f2:6a:
         1f:03:26:1c:d9:0d:90:bc:bc:56:1e:72:05:40:08:a5:ed:58:
         95:f7:07:d9:34:e1:0c:44:87:7a:1d:37:32:42:8b:ff:e4:c0:
         c4:35:bb:a3:87:dc:cd:42:dd:9f:ba:b9:ad:01:e1:25:63:45:
         31:f9:01:25:57:5d:e4:a8:91:ec:32:90:31:55:3e:05:d8:b3:
         2e:20:04:75:74:e5:10:f5:26:4a:43:2c:4f:2a:54:7d:25:13:
         df:d5:80:87:90:ea:e4:45:af:8c:a9:3a:09:20:83:d3:9f:81:
         8f:0d:62:f2:28:95:c6:cb:0a:26:1f:71:85:49:b5:52:16:cb:
         71:e0:4e:ad:66:b7:df:9e:c3:73:2d:23:b3:7e:77:a2:86:32:
         20:a6:06:62:ca:ea:f9:6d:8a:61:19:c3:ee:46:b7:6f:2f:5b:
         66:ee:2b:67:65:e7:12:e6:98:43:86:d8:f4:10:ac:9b:aa:84:
         77:b5:45:32:22:61:a8:c7:2b:9a:48:fc:28:b8:ec:b3:d8:ae:
         ec:97:6e:3c:59:49:e3:03
-----BEGIN CERTIFICATE-----
MIIFSzCCAzOgAwIBAgIQZxs639OhroRG57xh3cG0azANBgkqhkiG9w0BAQ0FADAU
MRIwEAYDVQQDDAlQcm9jdXJhQ0EwHhcNMjIxMTI0MTQwMTIwWhcNMzIxMTIxMTQw
MTIwWjAXMRUwEwYDVQQDDAx0ZWxlY2FtZXJhNDUwggIiMA0GCSqGSIb3DQEBAQUA
A4ICDwAwggIKAoICAQDJrODs30iClYBNKRhIxIpSc7W6GleVMHGq8LDYjxxp8r15
641FIGybo8pVP3poR/SKMsSRersK8EBHX/yKUcpDz3DGbO2BG7R6hznWUrJq6y2Z
FrqvbGh9NcWvgbA7gMstlGIdg9/G/MN4wZ5KCJRPmKUJf6sDsFlebY3LGk5pJeTJ
V0T7WRSgkfk47Zdtvm+fLUCwGeWKN0Ij9cHh/FCMtojyvq4Ly9EcH4JMLoYrOC1T
tQUez2y+Q7kL63EOl7EXSp1nxvPXTk1QWJzZcYxoEe3Xp9RKZewBPDIcKskFoGWJ
B6rdYYRsqTlATs6Lg3K7CBY02FhdOACFYu7V8h/LmmImzolMh/q5SHwZssY1MQ5c
2Xf8MTzGSuxgky6+yz/CaFUBjTN7TfcKaTQYuKMRO4cacH1P0+5jsc8tLxuKW8XO
SejaXTpuz2vj/+Ws0MlIijf3t3FWBlgtTslMi0ts/+MVzxFa3Z1/XEJhCV3K/WwW
iON+rq+w/s6Qs+V4vLjWQAzt0ZtrxpZjQpcSLmrdUftxKQopez4i1lZShARLW0fr
5mhakiobyXxQCC/VxnPl8UtXIQwNhVgxi3wRW/TrY/FaJUCE32AjwzXCF1Bx8KVn
MnQjbcP1U4+2FUlP/I0M7EC67YzbchAd+bpTl/sLw6BF3AI6EIcKoXFy+68SSwID
AQABo4GVMIGSMAkGA1UdEwQCMAAwHQYDVR0OBBYEFA5lmIJtbg/DzUdVBUdhkHP2
sw/lMEQGA1UdIwQ9MDuAFMobIZweagcXEkYNuBvQ6kUc868doRikFjAUMRIwEAYD
VQQDDAlQcm9jdXJhQ0GCCQC5M5b+N4LE/jATBgNVHSUEDDAKBggrBgEFBQcDAjAL
BgNVHQ8EBAMCB4AwDQYJKoZIhvcNAQENBQADggIBAFnzxs6MMdbbcsl94z/9ggsi
tw9LwfUg3fYHKmva82L3QC5jGw+DaoFan7eJshRfjEkTOOQcWBZJnsAlpliqfNbB
qb1DCJMx9qfqr2SlgTYzdOxGuiGcSZyReSumAoX4X+whX46LXAKCQOOt6d1gs2Jt
l1QhIC8eLh8h4lRelnNesTOPQfQS9MTBcbnZY4vRZ3Su07h0kKrpiCtHThzGDyNz
iRkccYWLdNp5DedBLoQ2Kt7QPsr0kUHeQFZ6eptlti2NvoNG7xT32bdt/Aw2AUoY
H95I03l3jqSDbXnNwkpb+c8MjnsNgt7Qv6zbNXdFC9uoDklqxDBhprWV7t3LPLSQ
GrRV8Iop8pBX+sEnn74bATVTnLCEV1tSiZITJOyhTYVFgB/t7uVKZBYUfW1KfdDy
ah8DJhzZDZC8vFYecgVACKXtWJX3B9k04QxEh3odNzJCi//kwMQ1u6OH3M1C3Z+6
ua0B4SVjRTH5ASVXXeSokewykDFVPgXYsy4gBHV05RD1JkpDLE8qVH0lE9/VgIeQ
6uRFr4ypOgkgg9OfgY8NYvIolcbLCiYfcYVJtVIWy3HgTq1mt9+ew3MtI7N+d6KG
MiCmBmLK6vltimEZw+5Gt28vW2buK2dl5xLmmEOG2PQQrJuqhHe1RTIiYajHK5pI
/Ci47LPYruyXbjxZSeMD
-----END CERTIFICATE-----
