Certificate:
    Data:
        Version: 3 (0x2)
        Serial Number:
            f3:34:ef:af:45:33:91:4c:1c:55:c4:df:75:b2:29:e7
    Signature Algorithm: sha512WithRSAEncryption
        Issuer: CN=ProcuraCA
        Validity
            Not Before: Nov 24 14:01:29 2022 GMT
            Not After : Nov 21 14:01:29 2032 GMT
        Subject: CN=telecamera46
        Subject Public Key Info:
            Public Key Algorithm: rsaEncryption
                Public-Key: (4096 bit)
                Modulus:
                    00:a0:3d:12:20:ba:90:aa:38:10:f9:3b:cd:a6:c2:
                    f7:1c:c7:2e:0f:90:15:74:5b:69:9a:d2:25:0b:24:
                    86:af:9f:10:31:df:8a:2e:d9:bd:1d:78:ac:ab:aa:
                    4d:72:77:8c:2c:b0:b0:f1:c5:2b:c4:21:dd:8d:e0:
                    0c:28:75:96:20:d7:cb:97:75:b2:29:fe:6b:96:64:
                    1d:92:5c:5c:19:44:7f:b1:7a:1f:f6:09:f6:19:16:
                    87:55:29:b4:db:b8:e8:6d:d4:76:09:a9:b2:52:55:
                    73:aa:0d:2a:98:54:e1:9c:5a:69:d6:a5:15:e0:78:
                    ff:c8:23:e0:70:6a:57:85:b8:3f:35:29:13:1d:15:
                    3a:65:2f:98:e5:e7:00:bd:aa:cf:d0:df:2c:12:1b:
                    55:4b:11:44:70:25:0a:75:45:e5:4b:50:4b:47:bb:
                    67:00:00:4f:48:da:94:02:12:27:f9:d5:07:e5:f4:
                    c9:31:9c:c1:15:bf:22:f7:73:0a:ac:86:72:1f:1e:
                    15:a2:8f:b3:83:4e:fd:b7:4f:6a:91:23:49:ba:5f:
                    4b:f0:65:a5:c0:a7:cb:08:f7:3c:51:c9:0e:d0:24:
                    92:33:16:01:00:87:81:de:b2:c8:cc:66:58:ff:27:
                    6c:97:70:81:31:0c:c4:7e:be:62:71:50:6c:ab:7a:
                    e2:15:54:92:b2:8a:aa:cb:5e:5a:06:42:17:41:f0:
                    16:77:02:32:92:5f:60:c0:1d:a8:60:d3:13:ef:f3:
                    76:08:59:11:7f:92:66:79:31:ff:25:9d:6e:93:aa:
                    74:d5:e4:00:89:df:2f:75:c1:85:1e:d8:18:6a:78:
                    e9:4a:e8:34:41:43:59:a6:5b:c8:98:30:15:67:59:
                    db:22:29:f4:ac:f0:c8:69:c9:17:94:ef:85:de:f7:
                    c4:d6:3f:6f:b7:f7:0d:a8:92:ac:bf:66:30:2b:0c:
                    cf:8b:47:da:cd:06:c2:5a:16:84:3a:bb:1e:8a:ff:
                    26:d6:02:18:0e:e6:ed:cf:f1:44:0d:27:5d:54:d1:
                    45:6a:c6:3e:08:cc:d3:cc:29:ad:b2:57:cb:e0:97:
                    7d:d7:3d:2e:9c:cb:26:7c:b5:08:aa:6e:38:39:57:
                    15:d6:51:49:dd:03:4d:75:b1:f6:02:a0:2c:a4:6a:
                    27:2c:f0:e4:cb:cf:13:e8:cc:38:05:ab:3a:25:b7:
                    4d:98:a8:5e:bd:e7:87:8b:c3:03:ac:27:71:13:f2:
                    40:f1:91:36:26:4d:32:e3:17:27:41:0e:67:56:f0:
                    c6:54:d4:47:98:3b:ba:e5:3e:cb:1e:a5:d2:b4:2b:
                    6b:49:b8:2f:fa:dd:10:0b:d9:63:ec:16:c0:ac:97:
                    23:5f:9b
                Exponent: 65537 (0x10001)
        X509v3 extensions:
            X509v3 Basic Constraints: 
                CA:FALSE
            X509v3 Subject Key Identifier: 
                02:83:5E:EA:98:3D:BD:B8:BC:A2:BC:53:A3:B0:E1:B7:C1:A7:D0:9A
            X509v3 Authority Key Identifier: 
                keyid:CA:1B:21:9C:1E:6A:07:17:12:46:0D:B8:1B:D0:EA:45:1C:F3:AF:1D
                DirName:/CN=ProcuraCA
                serial:B9:33:96:FE:37:82:C4:FE

            X509v3 Extended Key Usage: 
                TLS Web Client Authentication
            X509v3 Key Usage: 
                Digital Signature
    Signature Algorithm: sha512WithRSAEncryption
         b7:52:eb:cb:bd:e1:2d:1c:b4:91:26:ad:64:02:e7:62:1f:7d:
         cc:a0:fe:8b:e7:bc:68:ed:03:77:3e:2f:a7:14:ff:da:ec:58:
         bc:c4:f3:05:05:ee:4f:5e:4e:b5:3c:62:78:b8:78:4b:50:75:
         08:dd:77:c2:e5:07:3c:9f:09:9b:32:2c:b0:8a:f8:f7:40:e9:
         5e:10:af:57:5c:b0:db:48:68:25:ab:9f:62:1f:ae:45:e3:9a:
         43:ae:99:12:ce:77:8f:9f:6f:7f:19:43:57:1f:1e:82:0a:39:
         67:84:bf:48:56:2a:10:cc:2c:27:df:3b:25:29:4d:43:35:82:
         2d:ea:66:43:3d:f0:7c:87:af:cb:4a:15:b8:3b:92:02:ad:f9:
         1e:d8:15:9a:34:b5:7f:e7:20:36:53:75:9a:88:7a:21:49:5a:
         85:0e:34:55:b9:e0:34:40:67:15:6d:d8:ec:98:1e:a1:f8:1f:
         95:34:bb:46:03:c5:60:e8:10:1b:1b:55:da:c7:c8:ff:72:af:
         f7:45:02:32:30:70:b8:52:70:d5:83:61:fb:00:d3:79:7f:c8:
         83:da:ac:51:b6:55:73:ea:03:39:d4:89:a9:aa:c1:80:e9:92:
         c8:0c:95:bd:13:e6:db:2b:3f:85:d3:91:24:8c:21:32:53:85:
         28:58:29:92:fa:a2:4e:a1:2c:2a:2c:01:33:fe:98:1b:1e:e4:
         6c:07:87:84:62:ed:9f:18:10:fd:4c:cc:9e:4d:ae:7e:8e:32:
         2a:7e:b8:df:24:db:f2:8f:9a:38:9a:b3:75:49:5c:fa:fb:d4:
         52:b0:76:35:d7:47:a8:f1:f3:e2:4e:3a:86:85:57:3d:36:1b:
         27:a1:78:f6:8f:1c:4c:34:3e:e4:ca:68:2c:71:4e:89:7a:98:
         7a:87:8b:13:be:3c:a5:d3:ee:56:70:f1:71:8d:e6:f1:79:0c:
         bf:fb:27:8e:5c:88:73:f6:76:9c:c5:54:97:01:27:3f:2e:5e:
         e6:ee:17:d0:7e:a2:6d:77:c5:80:fa:52:be:a7:fa:7e:1c:ff:
         b0:fe:0a:d3:1a:45:7f:c3:16:fe:c3:b3:1a:ae:29:73:4a:7c:
         41:9e:9e:95:c3:07:bc:1e:aa:df:52:c0:a3:1a:6c:63:17:0b:
         5a:fe:e4:98:a1:1d:bf:6c:ff:91:9f:57:d7:c6:c0:15:da:76:
         97:8e:7a:06:6a:84:a7:e1:a4:8c:82:83:4e:1f:d0:1d:2f:87:
         d8:fc:10:06:0c:44:02:7f:09:72:08:a5:67:96:de:9c:84:06:
         01:1a:af:43:70:2e:aa:46:1b:73:43:05:18:2c:13:36:90:4a:
         1d:ae:74:b8:4e:cd:db:33
-----BEGIN CERTIFICATE-----
MIIFTDCCAzSgAwIBAgIRAPM0769FM5FMHFXE33WyKecwDQYJKoZIhvcNAQENBQAw
FDESMBAGA1UEAwwJUHJvY3VyYUNBMB4XDTIyMTEyNDE0MDEyOVoXDTMyMTEyMTE0
MDEyOVowFzEVMBMGA1UEAwwMdGVsZWNhbWVyYTQ2MIICIjANBgkqhkiG9w0BAQEF
AAOCAg8AMIICCgKCAgEAoD0SILqQqjgQ+TvNpsL3HMcuD5AVdFtpmtIlCySGr58Q
Md+KLtm9HXisq6pNcneMLLCw8cUrxCHdjeAMKHWWINfLl3WyKf5rlmQdklxcGUR/
sXof9gn2GRaHVSm027jobdR2CamyUlVzqg0qmFThnFpp1qUV4Hj/yCPgcGpXhbg/
NSkTHRU6ZS+Y5ecAvarP0N8sEhtVSxFEcCUKdUXlS1BLR7tnAABPSNqUAhIn+dUH
5fTJMZzBFb8i93MKrIZyHx4Voo+zg079t09qkSNJul9L8GWlwKfLCPc8UckO0CSS
MxYBAIeB3rLIzGZY/ydsl3CBMQzEfr5icVBsq3riFVSSsoqqy15aBkIXQfAWdwIy
kl9gwB2oYNMT7/N2CFkRf5JmeTH/JZ1uk6p01eQAid8vdcGFHtgYanjpSug0QUNZ
plvImDAVZ1nbIin0rPDIackXlO+F3vfE1j9vt/cNqJKsv2YwKwzPi0fazQbCWhaE
Orseiv8m1gIYDubtz/FEDSddVNFFasY+CMzTzCmtslfL4Jd91z0unMsmfLUIqm44
OVcV1lFJ3QNNdbH2AqAspGonLPDky88T6Mw4Bas6JbdNmKheveeHi8MDrCdxE/JA
8ZE2Jk0y4xcnQQ5nVvDGVNRHmDu65T7LHqXStCtrSbgv+t0QC9lj7BbArJcjX5sC
AwEAAaOBlTCBkjAJBgNVHRMEAjAAMB0GA1UdDgQWBBQCg17qmD29uLyivFOjsOG3
wafQmjBEBgNVHSMEPTA7gBTKGyGcHmoHFxJGDbgb0OpFHPOvHaEYpBYwFDESMBAG
A1UEAwwJUHJvY3VyYUNBggkAuTOW/jeCxP4wEwYDVR0lBAwwCgYIKwYBBQUHAwIw
CwYDVR0PBAQDAgeAMA0GCSqGSIb3DQEBDQUAA4ICAQC3UuvLveEtHLSRJq1kAudi
H33MoP6L57xo7QN3Pi+nFP/a7Fi8xPMFBe5PXk61PGJ4uHhLUHUI3XfC5Qc8nwmb
Miywivj3QOleEK9XXLDbSGglq59iH65F45pDrpkSznePn29/GUNXHx6CCjlnhL9I
VioQzCwn3zslKU1DNYIt6mZDPfB8h6/LShW4O5ICrfke2BWaNLV/5yA2U3WaiHoh
SVqFDjRVueA0QGcVbdjsmB6h+B+VNLtGA8Vg6BAbG1Xax8j/cq/3RQIyMHC4UnDV
g2H7ANN5f8iD2qxRtlVz6gM51ImpqsGA6ZLIDJW9E+bbKz+F05EkjCEyU4UoWCmS
+qJOoSwqLAEz/pgbHuRsB4eEYu2fGBD9TMyeTa5+jjIqfrjfJNvyj5o4mrN1SVz6
+9RSsHY110eo8fPiTjqGhVc9NhsnoXj2jxxMND7kymgscU6Jeph6h4sTvjyl0+5W
cPFxjebxeQy/+yeOXIhz9nacxVSXASc/Ll7m7hfQfqJtd8WA+lK+p/p+HP+w/grT
GkV/wxb+w7MarilzSnxBnp6Vwwe8HqrfUsCjGmxjFwta/uSYoR2/bP+Rn1fXxsAV
2naXjnoGaoSn4aSMgoNOH9AdL4fY/BAGDEQCfwlyCKVnlt6chAYBGq9DcC6qRhtz
QwUYLBM2kEodrnS4Ts3bMw==
-----END CERTIFICATE-----
