Certificate:
    Data:
        Version: 3 (0x2)
        Serial Number:
            fd:99:60:16:77:fa:59:4b:3e:d7:f1:dd:d1:b8:63:91
    Signature Algorithm: sha512WithRSAEncryption
        Issuer: CN=ProcuraCA
        Validity
            Not Before: Nov 24 14:01:00 2022 GMT
            Not After : Nov 21 14:01:00 2032 GMT
        Subject: CN=telecamera43
        Subject Public Key Info:
            Public Key Algorithm: rsaEncryption
                Public-Key: (4096 bit)
                Modulus:
                    00:cf:51:3e:57:a4:0d:d9:e3:69:c6:a6:06:3f:28:
                    25:a0:c9:d7:92:7a:a5:14:41:ab:0d:9b:bf:55:24:
                    d1:47:33:b0:54:a7:1a:17:f6:a2:1f:ae:e5:67:ea:
                    44:18:44:ef:94:89:52:d5:6e:0f:f7:67:de:80:55:
                    9c:b8:60:9c:a2:4d:69:68:e9:2d:f9:c1:91:c7:04:
                    9a:cf:cb:96:6c:bc:65:ec:c2:2b:15:c7:35:0f:fd:
                    8e:ab:de:77:69:2d:3b:00:ae:5b:ac:c0:bf:4a:e2:
                    ac:06:e6:16:3d:4d:32:8b:19:34:76:39:4c:a7:4c:
                    cf:d9:12:1e:9b:28:af:2e:8d:f6:e6:36:4a:6b:e8:
                    bf:18:a5:b3:6d:79:d4:5b:8c:ab:36:b6:b6:a6:59:
                    1c:c3:b1:1a:33:4f:67:49:c1:05:5d:c5:36:d2:c0:
                    f3:0e:6c:2e:0f:ee:62:d1:c6:aa:a8:be:d3:72:ed:
                    58:7d:41:cd:3b:20:85:40:a3:01:67:17:f7:8e:19:
                    a5:ac:e7:3e:19:4c:70:e5:73:0b:62:6d:dd:20:e0:
                    38:77:25:d7:d7:00:53:0a:7e:a3:0a:ce:84:6d:43:
                    55:cd:8a:de:5b:59:5d:ca:3a:91:16:64:ba:42:c4:
                    6c:1b:07:f9:fd:3d:a9:8d:43:1b:d0:7d:49:dd:99:
                    1a:cb:df:11:69:d9:c3:40:eb:d4:3e:7b:f7:c0:49:
                    e2:e2:5c:38:73:ae:a8:5b:35:41:7d:67:79:4f:07:
                    c7:83:f0:90:e5:96:ef:8b:4c:7a:74:2c:5a:c5:c7:
                    08:da:da:40:1b:b7:8d:e6:cb:e9:d7:4e:d5:aa:0d:
                    c4:dd:29:0a:ed:78:11:6b:01:77:05:43:31:6e:a6:
                    4e:6b:c9:dc:36:48:f5:a5:ab:8f:7d:0d:20:6a:b1:
                    e0:8c:a1:1c:ce:23:55:e1:fa:cc:17:b4:50:1b:0e:
                    80:40:f4:1a:41:92:b5:5d:b7:a8:1f:65:23:38:49:
                    9c:7f:93:45:fa:75:b5:03:22:c0:b3:66:b0:ce:ba:
                    d0:1c:ef:d6:b9:7c:3b:d1:87:6b:b1:ee:43:9c:1f:
                    50:b7:ca:d6:96:db:4e:a1:d4:93:9b:71:4f:32:bb:
                    ca:29:f3:31:41:c9:68:31:94:e1:cc:ca:82:5f:d5:
                    5c:ef:9c:45:2e:20:af:74:17:11:e1:70:93:c9:34:
                    03:fb:24:1e:1b:20:ba:a0:5b:86:8a:10:1b:15:9d:
                    6e:d4:5b:f9:6b:b5:d4:57:55:e9:39:22:bd:d6:32:
                    0b:a8:e8:3b:80:ec:3d:c8:6b:4e:86:09:d5:f8:0a:
                    6c:50:be:9b:ea:23:ad:60:67:6f:1b:40:4f:2c:3b:
                    b3:d1:01
                Exponent: 65537 (0x10001)
        X509v3 extensions:
            X509v3 Basic Constraints: 
                CA:FALSE
            X509v3 Subject Key Identifier: 
                29:71:78:2E:74:7C:C6:8F:67:C5:DD:A4:4B:78:05:00:86:6D:F1:83
            X509v3 Authority Key Identifier: 
                keyid:CA:1B:21:9C:1E:6A:07:17:12:46:0D:B8:1B:D0:EA:45:1C:F3:AF:1D
                DirName:/CN=ProcuraCA
                serial:B9:33:96:FE:37:82:C4:FE

            X509v3 Extended Key Usage: 
                TLS Web Client Authentication
            X509v3 Key Usage: 
                Digital Signature
    Signature Algorithm: sha512WithRSAEncryption
         a9:b8:c5:36:56:ae:46:6f:fe:1d:86:fb:d9:32:1e:c5:ae:68:
         83:8a:eb:68:a8:9a:9b:11:7b:b9:e5:cf:bb:30:7b:e9:d0:29:
         12:71:bb:52:cd:9e:37:7c:cc:c0:39:d6:32:39:d3:df:ae:7a:
         ce:e2:56:06:1c:ae:e2:75:55:03:b0:41:a1:8d:2a:ae:d9:6e:
         87:4f:ce:5d:17:b6:37:a0:79:e6:20:63:26:f7:87:a9:a8:93:
         f5:5d:3b:b9:2d:d8:e0:f2:90:81:b6:9b:45:dc:40:d6:2e:3a:
         2f:88:25:c8:aa:41:52:34:21:6d:f6:9d:7c:28:eb:8a:cb:08:
         56:ad:e6:0b:9e:4f:67:73:65:f4:db:81:32:c6:c1:6c:f3:10:
         36:67:72:59:ff:84:58:91:ed:ca:63:58:d2:c0:1c:0a:82:2c:
         5e:9e:3f:8f:d1:99:bb:0c:74:e3:04:16:a0:2e:24:bd:db:60:
         1f:a7:b3:d1:fc:fa:4f:3c:ff:df:be:0b:65:26:7d:d4:81:2f:
         4c:e9:13:d9:52:98:b7:b9:80:d9:4b:43:19:6f:86:5d:e0:52:
         0e:95:76:17:d7:6a:e7:5d:91:99:e3:da:86:74:89:ea:e0:f8:
         48:6b:8a:08:d6:9e:dd:e1:3c:09:6c:58:d6:8f:ff:f5:26:5a:
         78:81:b1:ba:e7:cd:f1:dd:5f:0e:1c:55:59:12:ee:da:30:0a:
         18:65:5b:78:4e:ed:c0:42:3d:85:71:bd:d6:ad:10:e1:ad:31:
         c8:77:29:ac:ee:f9:8a:46:54:17:a9:b6:e8:32:67:89:5b:47:
         6d:e6:c4:2f:20:98:bc:bf:1b:07:69:c7:63:e1:fa:bf:fc:b6:
         2b:e9:54:51:ce:37:6d:99:94:e7:84:cc:78:40:fe:b7:a5:ce:
         25:f3:9d:71:4d:6c:8b:93:93:72:65:6c:92:1c:f2:b3:9a:41:
         0f:75:8f:be:47:20:5b:df:1b:fc:9e:c2:f4:7b:cd:3e:1f:7b:
         05:2e:b7:da:86:91:6a:93:bb:ea:1a:dc:8f:08:48:59:67:0d:
         3c:0f:bf:a9:54:11:b4:26:8e:49:7c:5b:d4:ba:6e:d8:87:38:
         e8:d1:78:0f:d9:09:40:b6:2f:2b:74:8b:83:52:e5:18:93:11:
         4c:42:5a:e2:b4:ce:17:5e:97:1e:49:af:49:e6:58:19:67:83:
         aa:fb:2c:be:d1:a3:71:e2:d1:7d:24:c0:dc:bb:0a:d6:0e:3b:
         a9:5d:65:d7:59:e0:89:ef:c4:2b:0f:26:67:41:19:77:6d:9f:
         1d:45:82:91:b8:b1:96:3b:05:f5:80:b2:c9:6c:e3:91:24:56:
         94:1e:36:0e:f8:21:b1:fd
-----BEGIN CERTIFICATE-----
MIIFTDCCAzSgAwIBAgIRAP2ZYBZ3+llLPtfx3dG4Y5EwDQYJKoZIhvcNAQENBQAw
FDESMBAGA1UEAwwJUHJvY3VyYUNBMB4XDTIyMTEyNDE0MDEwMFoXDTMyMTEyMTE0
MDEwMFowFzEVMBMGA1UEAwwMdGVsZWNhbWVyYTQzMIICIjANBgkqhkiG9w0BAQEF
AAOCAg8AMIICCgKCAgEAz1E+V6QN2eNpxqYGPygloMnXknqlFEGrDZu/VSTRRzOw
VKcaF/aiH67lZ+pEGETvlIlS1W4P92fegFWcuGCcok1paOkt+cGRxwSaz8uWbLxl
7MIrFcc1D/2Oq953aS07AK5brMC/SuKsBuYWPU0yixk0djlMp0zP2RIemyivLo32
5jZKa+i/GKWzbXnUW4yrNra2plkcw7EaM09nScEFXcU20sDzDmwuD+5i0caqqL7T
cu1YfUHNOyCFQKMBZxf3jhmlrOc+GUxw5XMLYm3dIOA4dyXX1wBTCn6jCs6EbUNV
zYreW1ldyjqRFmS6QsRsGwf5/T2pjUMb0H1J3Zkay98RadnDQOvUPnv3wEni4lw4
c66oWzVBfWd5TwfHg/CQ5Zbvi0x6dCxaxccI2tpAG7eN5svp107Vqg3E3SkK7XgR
awF3BUMxbqZOa8ncNkj1pauPfQ0garHgjKEcziNV4frMF7RQGw6AQPQaQZK1Xbeo
H2UjOEmcf5NF+nW1AyLAs2awzrrQHO/WuXw70Ydrse5DnB9Qt8rWlttOodSTm3FP
MrvKKfMxQcloMZThzMqCX9Vc75xFLiCvdBcR4XCTyTQD+yQeGyC6oFuGihAbFZ1u
1Fv5a7XUV1XpOSK91jILqOg7gOw9yGtOhgnV+ApsUL6b6iOtYGdvG0BPLDuz0QEC
AwEAAaOBlTCBkjAJBgNVHRMEAjAAMB0GA1UdDgQWBBQpcXgudHzGj2fF3aRLeAUA
hm3xgzBEBgNVHSMEPTA7gBTKGyGcHmoHFxJGDbgb0OpFHPOvHaEYpBYwFDESMBAG
A1UEAwwJUHJvY3VyYUNBggkAuTOW/jeCxP4wEwYDVR0lBAwwCgYIKwYBBQUHAwIw
CwYDVR0PBAQDAgeAMA0GCSqGSIb3DQEBDQUAA4ICAQCpuMU2Vq5Gb/4dhvvZMh7F
rmiDiutoqJqbEXu55c+7MHvp0CkScbtSzZ43fMzAOdYyOdPfrnrO4lYGHK7idVUD
sEGhjSqu2W6HT85dF7Y3oHnmIGMm94epqJP1XTu5Ldjg8pCBtptF3EDWLjoviCXI
qkFSNCFt9p18KOuKywhWreYLnk9nc2X024EyxsFs8xA2Z3JZ/4RYke3KY1jSwBwK
gixenj+P0Zm7DHTjBBagLiS922Afp7PR/PpPPP/fvgtlJn3UgS9M6RPZUpi3uYDZ
S0MZb4Zd4FIOlXYX12rnXZGZ49qGdInq4PhIa4oI1p7d4TwJbFjWj//1Jlp4gbG6
583x3V8OHFVZEu7aMAoYZVt4Tu3AQj2Fcb3WrRDhrTHIdyms7vmKRlQXqbboMmeJ
W0dt5sQvIJi8vxsHacdj4fq//LYr6VRRzjdtmZTnhMx4QP63pc4l851xTWyLk5Ny
ZWySHPKzmkEPdY++RyBb3xv8nsL0e80+H3sFLrfahpFqk7vqGtyPCEhZZw08D7+p
VBG0Jo5JfFvUum7Yhzjo0XgP2QlAti8rdIuDUuUYkxFMQlritM4XXpceSa9J5lgZ
Z4Oq+yy+0aNx4tF9JMDcuwrWDjupXWXXWeCJ78QrDyZnQRl3bZ8dRYKRuLGWOwX1
gLLJbOORJFaUHjYO+CGx/Q==
-----END CERTIFICATE-----
