Certificate:
    Data:
        Version: 3 (0x2)
        Serial Number:
            41:9c:ae:56:c4:e9:ca:cd:f2:b2:d2:62:a8:d6:ff:74
    Signature Algorithm: sha512WithRSAEncryption
        Issuer: CN=ProcuraCA
        Validity
            Not Before: Nov 24 14:01:45 2022 GMT
            Not After : Nov 21 14:01:45 2032 GMT
        Subject: CN=telecamera48
        Subject Public Key Info:
            Public Key Algorithm: rsaEncryption
                Public-Key: (4096 bit)
                Modulus:
                    00:a9:cd:3d:de:99:5f:4e:8e:ac:85:f3:a9:a2:35:
                    41:6b:0c:bd:7c:42:f5:45:d3:03:87:c5:5a:d5:94:
                    71:81:7c:57:3e:cb:2b:73:e1:34:8d:ea:ff:16:76:
                    c4:48:53:b6:dd:60:a0:25:1a:03:77:94:eb:ce:e4:
                    c5:ff:d1:1c:4d:87:7f:aa:02:d1:2a:88:81:47:4c:
                    8c:71:d7:b5:ff:af:0e:85:6c:80:f6:18:95:09:27:
                    f9:67:19:06:25:89:64:56:36:7e:2c:41:ab:bc:1c:
                    a0:99:06:ff:c2:b9:9e:19:dd:af:9f:e6:cc:77:11:
                    85:13:55:a5:41:38:da:82:2b:53:66:19:40:1a:64:
                    c6:95:76:fe:c5:20:68:39:90:4e:e2:a0:05:3c:83:
                    21:b3:80:7c:9e:80:c0:b0:ee:e1:b7:9e:2b:6f:b3:
                    d2:0b:34:6b:45:5c:24:64:8e:22:c4:f1:10:58:ca:
                    82:60:3a:b5:b0:a6:aa:d6:da:e4:db:35:1f:ae:d3:
                    77:53:31:dc:a7:86:32:48:96:12:84:1d:0b:a0:d5:
                    ed:b3:ae:f3:76:bb:08:fc:97:a0:d7:6f:32:68:a6:
                    1a:a1:b9:0b:d5:2d:eb:36:00:5a:2c:c3:c6:bc:3a:
                    f1:72:c2:f8:3a:4e:47:12:c8:70:85:ff:a9:bb:c7:
                    bf:b5:31:2b:82:70:7a:0f:7d:5a:aa:8c:ed:72:0d:
                    b8:68:fc:06:3e:90:77:2f:d6:6d:e0:7f:e5:0b:26:
                    f8:21:f2:57:a6:b0:93:8f:0b:1c:8e:7a:32:70:69:
                    79:0b:db:c4:97:53:c7:c5:4a:19:63:8b:05:97:c6:
                    08:14:ea:50:70:69:82:22:0b:1c:11:de:97:1c:f2:
                    69:03:c9:dd:7a:c4:9c:80:5c:36:30:9c:b6:d9:48:
                    fb:04:cd:42:94:8c:a4:e6:7d:da:31:82:c2:a5:b2:
                    29:18:b0:11:3f:a0:8b:9b:21:17:42:ff:19:5f:08:
                    7a:6e:f8:17:c2:82:e2:42:df:35:4c:01:f1:05:c5:
                    db:b1:25:d2:1c:1b:b0:85:1d:ee:b4:a9:1d:36:ae:
                    8e:9c:23:a3:de:4e:8a:f6:4e:8f:ef:c0:23:27:4c:
                    62:01:8e:db:d6:c9:31:c5:42:db:e2:28:24:7a:7d:
                    fb:17:d3:16:56:0b:7d:aa:77:da:8b:a5:06:b3:56:
                    6b:4e:a0:0c:c0:dd:d7:72:0e:a1:4a:0f:32:57:7b:
                    13:15:36:40:30:e1:2d:ca:2c:e7:61:43:3d:39:45:
                    08:60:eb:7b:0d:a1:07:a0:b7:f6:61:e2:ae:82:7f:
                    4c:d6:09:2a:16:e2:49:af:d0:41:02:0a:ac:19:14:
                    fa:27:75
                Exponent: 65537 (0x10001)
        X509v3 extensions:
            X509v3 Basic Constraints: 
                CA:FALSE
            X509v3 Subject Key Identifier: 
                D3:B2:00:9A:8E:24:DC:FD:2F:FC:D8:AC:CC:73:1F:A2:2C:E8:A6:E5
            X509v3 Authority Key Identifier: 
                keyid:CA:1B:21:9C:1E:6A:07:17:12:46:0D:B8:1B:D0:EA:45:1C:F3:AF:1D
                DirName:/CN=ProcuraCA
                serial:B9:33:96:FE:37:82:C4:FE

            X509v3 Extended Key Usage: 
                TLS Web Client Authentication
            X509v3 Key Usage: 
                Digital Signature
    Signature Algorithm: sha512WithRSAEncryption
         4a:83:12:dc:c3:f7:b1:55:d3:00:13:96:7f:c8:2d:61:bc:fd:
         cd:cd:81:f0:1b:ff:6f:d3:68:0f:38:d0:0a:f5:57:53:c2:e3:
         69:8c:07:88:8b:fe:e2:ca:81:9a:3e:59:2a:d7:51:07:22:8e:
         20:91:a4:3e:df:a4:c3:f2:de:b0:40:db:34:81:f4:13:98:86:
         fd:61:3d:09:a8:e8:ef:12:cb:89:95:bf:82:ab:b0:bf:a4:c5:
         d5:b3:22:f4:71:3d:13:e1:7f:20:14:a3:db:1b:8c:86:26:9c:
         8e:10:44:9c:f8:99:da:c3:fc:ec:78:ac:f9:8b:1b:a0:46:54:
         b7:b1:eb:14:4f:e4:77:a4:44:21:13:de:c2:4f:33:ba:82:c9:
         84:41:17:1c:a3:f4:82:58:2e:06:61:7f:70:36:1c:6b:e4:98:
         13:7a:04:f4:8d:f0:b4:1c:de:ad:6c:ad:37:67:bd:7d:33:49:
         45:cf:20:28:d7:28:42:43:36:96:16:85:7a:8e:8c:28:f9:54:
         89:a4:ce:4c:2b:7b:55:4e:c5:4e:5c:35:3f:20:5a:cd:df:ea:
         b4:67:d0:ff:49:71:bc:93:d2:2b:83:08:a7:4d:e8:22:ee:3d:
         fe:f1:e0:bd:e9:7f:c6:d9:18:51:da:86:03:a7:f6:f0:a0:0b:
         78:db:39:4f:b9:0e:c4:85:ee:6a:f5:c3:0f:78:79:82:ea:21:
         43:f2:c1:26:cb:f1:e7:fe:d8:e6:d4:dc:b3:e7:d3:00:34:e9:
         3e:e4:c8:35:6f:ca:40:de:e1:a4:20:70:0a:1d:e0:0a:94:ec:
         70:bd:a0:85:c9:e0:10:10:28:b4:b1:29:a8:a4:40:81:3a:f2:
         af:01:6f:28:30:2c:59:5c:df:65:c7:8b:f9:99:20:03:01:f6:
         38:22:39:6e:b3:39:67:34:eb:b6:b4:0b:55:2b:44:59:9a:7d:
         1c:a4:01:dc:80:ca:58:c9:f6:b9:4a:1c:cc:19:9f:23:cb:de:
         0f:84:7b:8d:b2:91:bd:00:a5:53:88:a6:c9:40:c8:6c:bd:01:
         13:af:cd:5a:ff:ef:95:db:2a:39:eb:0c:7d:43:22:70:63:e2:
         1c:f1:91:e2:06:46:67:a8:90:c9:7a:ef:18:fb:34:5a:1d:00:
         81:c3:02:4b:47:2c:a9:97:77:14:f3:a7:1e:fd:3e:6c:32:87:
         3a:d1:28:de:67:c2:55:51:67:78:b6:2f:da:46:6b:45:c5:cb:
         70:4e:9b:c0:e1:21:09:66:03:a8:f0:6e:6b:44:cd:72:7c:f3:
         8c:22:8d:16:64:ca:82:c1:13:29:f8:63:0b:cc:d1:f5:2f:a8:
         5c:7c:b8:db:f8:31:da:89
-----BEGIN CERTIFICATE-----
MIIFSzCCAzOgAwIBAgIQQZyuVsTpys3ystJiqNb/dDANBgkqhkiG9w0BAQ0FADAU
MRIwEAYDVQQDDAlQcm9jdXJhQ0EwHhcNMjIxMTI0MTQwMTQ1WhcNMzIxMTIxMTQw
MTQ1WjAXMRUwEwYDVQQDDAx0ZWxlY2FtZXJhNDgwggIiMA0GCSqGSIb3DQEBAQUA
A4ICDwAwggIKAoICAQCpzT3emV9OjqyF86miNUFrDL18QvVF0wOHxVrVlHGBfFc+
yytz4TSN6v8WdsRIU7bdYKAlGgN3lOvO5MX/0RxNh3+qAtEqiIFHTIxx17X/rw6F
bID2GJUJJ/lnGQYliWRWNn4sQau8HKCZBv/CuZ4Z3a+f5sx3EYUTVaVBONqCK1Nm
GUAaZMaVdv7FIGg5kE7ioAU8gyGzgHyegMCw7uG3nitvs9ILNGtFXCRkjiLE8RBY
yoJgOrWwpqrW2uTbNR+u03dTMdynhjJIlhKEHQug1e2zrvN2uwj8l6DXbzJophqh
uQvVLes2AFosw8a8OvFywvg6TkcSyHCF/6m7x7+1MSuCcHoPfVqqjO1yDbho/AY+
kHcv1m3gf+ULJvgh8lemsJOPCxyOejJwaXkL28SXU8fFShljiwWXxggU6lBwaYIi
CxwR3pcc8mkDyd16xJyAXDYwnLbZSPsEzUKUjKTmfdoxgsKlsikYsBE/oIubIRdC
/xlfCHpu+BfCguJC3zVMAfEFxduxJdIcG7CFHe60qR02ro6cI6PeTor2To/vwCMn
TGIBjtvWyTHFQtviKCR6ffsX0xZWC32qd9qLpQazVmtOoAzA3ddyDqFKDzJXexMV
NkAw4S3KLOdhQz05RQhg63sNoQegt/Zh4q6Cf0zWCSoW4kmv0EECCqwZFPondQID
AQABo4GVMIGSMAkGA1UdEwQCMAAwHQYDVR0OBBYEFNOyAJqOJNz9L/zYrMxzH6Is
6KblMEQGA1UdIwQ9MDuAFMobIZweagcXEkYNuBvQ6kUc868doRikFjAUMRIwEAYD
VQQDDAlQcm9jdXJhQ0GCCQC5M5b+N4LE/jATBgNVHSUEDDAKBggrBgEFBQcDAjAL
BgNVHQ8EBAMCB4AwDQYJKoZIhvcNAQENBQADggIBAEqDEtzD97FV0wATln/ILWG8
/c3NgfAb/2/TaA840Ar1V1PC42mMB4iL/uLKgZo+WSrXUQcijiCRpD7fpMPy3rBA
2zSB9BOYhv1hPQmo6O8Sy4mVv4KrsL+kxdWzIvRxPRPhfyAUo9sbjIYmnI4QRJz4
mdrD/Ox4rPmLG6BGVLex6xRP5HekRCET3sJPM7qCyYRBFxyj9IJYLgZhf3A2HGvk
mBN6BPSN8LQc3q1srTdnvX0zSUXPICjXKEJDNpYWhXqOjCj5VImkzkwre1VOxU5c
NT8gWs3f6rRn0P9JcbyT0iuDCKdN6CLuPf7x4L3pf8bZGFHahgOn9vCgC3jbOU+5
DsSF7mr1ww94eYLqIUPywSbL8ef+2ObU3LPn0wA06T7kyDVvykDe4aQgcAod4AqU
7HC9oIXJ4BAQKLSxKaikQIE68q8BbygwLFlc32XHi/mZIAMB9jgiOW6zOWc067a0
C1UrRFmafRykAdyAyljJ9rlKHMwZnyPL3g+Ee42ykb0ApVOIpslAyGy9AROvzVr/
75XbKjnrDH1DInBj4hzxkeIGRmeokMl67xj7NFodAIHDAktHLKmXdxTzpx79Pmwy
hzrRKN5nwlVRZ3i2L9pGa0XFy3BOm8DhIQlmA6jwbmtEzXJ884wijRZkyoLBEyn4
YwvM0fUvqFx8uNv4MdqJ
-----END CERTIFICATE-----
