Certificate:
    Data:
        Version: 3 (0x2)
        Serial Number:
            d3:f9:34:ae:41:e8:4c:2d:db:17:e1:1a:6a:a2:03:9e
    Signature Algorithm: sha512WithRSAEncryption
        Issuer: CN=ProcuraCA
        Validity
            Not Before: Nov 24 14:01:08 2022 GMT
            Not After : Nov 21 14:01:08 2032 GMT
        Subject: CN=telecamera44
        Subject Public Key Info:
            Public Key Algorithm: rsaEncryption
                Public-Key: (4096 bit)
                Modulus:
                    00:c6:ce:2d:40:28:23:37:7d:91:14:a4:c9:1b:9b:
                    2b:f7:93:8c:53:b6:45:99:5d:34:df:9d:2b:85:9e:
                    6f:c4:44:44:df:e1:bc:f6:fe:4c:02:0f:ff:5d:df:
                    b8:9b:2d:4e:15:36:df:37:37:87:a1:93:52:48:91:
                    15:ca:f6:5e:bf:f0:c3:c1:b9:29:9b:98:c1:71:fd:
                    37:b8:fd:0d:95:1a:51:ed:4a:f3:42:d8:f5:42:c2:
                    98:b3:f6:b6:83:4a:3f:06:4f:69:89:41:d7:ff:c4:
                    bc:b9:87:4d:bc:8b:42:56:8b:f8:ba:f3:11:70:59:
                    96:ec:23:ff:3b:d1:c3:65:72:50:74:24:58:bc:26:
                    f7:77:d1:07:ca:97:c8:c4:e5:e7:b1:14:2e:60:90:
                    0e:da:0b:54:0c:29:cc:28:3b:d0:8b:e5:84:ae:12:
                    23:27:6f:a3:a7:73:ee:91:6e:33:bf:c6:3a:14:73:
                    7c:2e:04:b8:a3:db:30:ba:09:d7:aa:9f:f6:3f:85:
                    4d:25:d3:28:73:43:cf:54:37:af:3e:ef:90:16:30:
                    bc:0a:3d:0d:64:50:a8:88:56:14:d4:8a:1c:72:db:
                    21:e5:49:17:2d:35:dd:93:7e:6e:5b:ab:85:f6:16:
                    79:ec:a2:8f:1f:5e:ed:9b:5a:b4:1d:5f:cf:11:0d:
                    d8:e1:b1:48:45:d7:6d:f4:57:44:fa:f3:77:1e:58:
                    0a:1a:e6:d8:47:d3:a8:e5:68:d8:07:d6:b7:9b:33:
                    c9:c4:8a:06:bc:be:ea:63:8c:6d:59:b0:15:a7:5d:
                    71:fb:50:b8:96:83:3d:1d:1a:6f:e8:03:61:04:79:
                    9c:df:9a:3f:32:81:5b:92:13:d2:69:4e:15:67:20:
                    80:d6:e2:5d:72:ef:53:e6:29:ae:4a:38:5c:cf:8a:
                    f3:89:02:75:55:b8:e2:63:11:66:ae:bc:3a:ab:1c:
                    61:98:dc:7f:19:3e:db:12:a1:d5:0b:a1:09:d8:f7:
                    fb:a2:f6:a7:63:b2:7e:38:62:98:40:db:c0:d6:97:
                    4a:6d:a3:30:0a:35:c0:3b:04:5c:06:be:57:8c:40:
                    bd:50:48:23:3c:fe:e4:ff:05:00:10:80:8a:89:02:
                    64:39:f2:c6:d9:e4:39:d4:b3:76:c6:f8:1c:30:5b:
                    e5:db:03:76:38:73:4b:49:90:88:a1:f0:02:ac:de:
                    da:60:aa:95:29:34:8d:e1:05:8c:75:b3:7d:45:65:
                    07:dd:10:c2:60:de:e6:e4:9c:74:ba:e8:de:80:b1:
                    7d:ac:b4:c3:f6:23:c6:2c:aa:35:46:4e:d5:a7:d9:
                    94:34:b0:69:0d:dd:2d:d5:0e:2c:93:e4:95:5e:73:
                    61:f1:17
                Exponent: 65537 (0x10001)
        X509v3 extensions:
            X509v3 Basic Constraints: 
                CA:FALSE
            X509v3 Subject Key Identifier: 
                A8:0F:79:98:1E:0C:E2:78:E9:55:15:B8:FB:AD:D7:71:07:77:0D:A6
            X509v3 Authority Key Identifier: 
                keyid:CA:1B:21:9C:1E:6A:07:17:12:46:0D:B8:1B:D0:EA:45:1C:F3:AF:1D
                DirName:/CN=ProcuraCA
                serial:B9:33:96:FE:37:82:C4:FE

            X509v3 Extended Key Usage: 
                TLS Web Client Authentication
            X509v3 Key Usage: 
                Digital Signature
    Signature Algorithm: sha512WithRSAEncryption
         4e:6a:80:80:f7:0b:7b:06:51:c7:b2:eb:07:a2:7b:c0:60:a0:
         3b:dd:55:44:af:c1:d6:9c:39:90:df:a5:6b:10:3b:72:59:73:
         a8:41:47:23:71:60:14:76:c4:66:a8:9a:ad:0c:46:68:c9:82:
         ec:37:35:92:66:be:bf:17:8f:3c:2d:57:c3:ea:fa:3c:19:69:
         4b:aa:05:ed:bc:64:c2:4e:f5:27:25:1b:b9:d2:57:e4:05:2d:
         92:cb:c2:c6:be:ca:ca:35:1f:a2:c8:1e:64:34:1c:d3:6f:64:
         7d:ad:02:c2:01:33:28:88:77:77:71:dc:44:06:40:37:55:61:
         ca:74:5f:37:e6:35:2a:16:6a:ca:ec:b7:68:40:4f:e3:d2:d8:
         e6:e6:5e:3f:ad:52:12:72:69:a1:9d:1f:2a:86:0e:8a:60:45:
         e4:37:18:e2:d9:26:69:6c:fa:0c:38:8e:0f:b2:02:0c:92:39:
         10:bf:3b:6d:9d:ef:3c:e2:40:b5:4c:f5:c7:d4:78:9d:13:74:
         c2:35:f5:f4:8f:59:26:62:76:78:5e:51:fa:99:d7:43:e7:36:
         a1:3b:19:bf:56:cc:6b:88:50:2d:81:0b:d5:d9:d7:3b:ca:7b:
         a1:20:7f:63:61:07:af:dc:10:70:ae:80:29:03:40:16:f4:63:
         59:c5:67:fb:68:f6:07:4f:2d:bc:21:6f:39:4c:46:d9:db:c9:
         d9:10:1d:0d:5c:c0:f9:90:a7:db:2a:d5:fc:32:1c:c9:47:81:
         ff:3a:e4:e4:34:25:db:6c:2f:cb:4c:07:7e:37:7b:76:91:ea:
         99:c5:c9:cb:37:9e:a2:38:6e:3b:f9:49:cb:43:73:15:58:69:
         2d:39:03:4f:45:33:5e:4d:ff:0f:2c:15:bc:e5:51:31:44:67:
         ee:68:e6:1f:12:c0:d9:5d:c3:f9:96:7f:00:3d:3c:a0:95:b1:
         fd:29:1e:21:0c:08:90:c6:1c:9d:44:ee:4d:91:66:cf:b1:d0:
         b8:6b:57:6f:09:f4:4e:fd:6c:93:53:b9:dd:3a:bb:5f:79:a3:
         8a:53:a3:d9:a9:ae:ba:e8:7a:ac:15:38:b6:6c:39:44:c3:74:
         aa:33:14:38:c0:a9:6a:ba:1d:90:29:f4:39:52:f4:38:67:b5:
         c6:2c:10:71:0e:fe:8b:6a:c3:bf:8a:37:a2:8d:8e:72:54:eb:
         3e:40:4d:4a:46:98:8c:fc:0a:2b:bc:74:3e:8c:41:e3:95:f4:
         7c:36:07:b4:b8:06:44:20:4b:77:fe:86:32:41:5f:15:3f:c3:
         01:90:9d:ae:51:11:92:5a:8d:da:df:94:13:f0:1f:ef:94:fe:
         38:24:ee:1e:c6:10:f1:ac
-----BEGIN CERTIFICATE-----
MIIFTDCCAzSgAwIBAgIRANP5NK5B6Ewt2xfhGmqiA54wDQYJKoZIhvcNAQENBQAw
FDESMBAGA1UEAwwJUHJvY3VyYUNBMB4XDTIyMTEyNDE0MDEwOFoXDTMyMTEyMTE0
MDEwOFowFzEVMBMGA1UEAwwMdGVsZWNhbWVyYTQ0MIICIjANBgkqhkiG9w0BAQEF
AAOCAg8AMIICCgKCAgEAxs4tQCgjN32RFKTJG5sr95OMU7ZFmV00350rhZ5vxERE
3+G89v5MAg//Xd+4my1OFTbfNzeHoZNSSJEVyvZev/DDwbkpm5jBcf03uP0NlRpR
7UrzQtj1QsKYs/a2g0o/Bk9piUHX/8S8uYdNvItCVov4uvMRcFmW7CP/O9HDZXJQ
dCRYvCb3d9EHypfIxOXnsRQuYJAO2gtUDCnMKDvQi+WErhIjJ2+jp3PukW4zv8Y6
FHN8LgS4o9swugnXqp/2P4VNJdMoc0PPVDevPu+QFjC8Cj0NZFCoiFYU1Iocctsh
5UkXLTXdk35uW6uF9hZ57KKPH17tm1q0HV/PEQ3Y4bFIRddt9FdE+vN3HlgKGubY
R9Oo5WjYB9a3mzPJxIoGvL7qY4xtWbAVp11x+1C4loM9HRpv6ANhBHmc35o/MoFb
khPSaU4VZyCA1uJdcu9T5imuSjhcz4rziQJ1VbjiYxFmrrw6qxxhmNx/GT7bEqHV
C6EJ2Pf7ovanY7J+OGKYQNvA1pdKbaMwCjXAOwRcBr5XjEC9UEgjPP7k/wUAEICK
iQJkOfLG2eQ51LN2xvgcMFvl2wN2OHNLSZCIofACrN7aYKqVKTSN4QWMdbN9RWUH
3RDCYN7m5Jx0uujegLF9rLTD9iPGLKo1Rk7Vp9mUNLBpDd0t1Q4sk+SVXnNh8RcC
AwEAAaOBlTCBkjAJBgNVHRMEAjAAMB0GA1UdDgQWBBSoD3mYHgzieOlVFbj7rddx
B3cNpjBEBgNVHSMEPTA7gBTKGyGcHmoHFxJGDbgb0OpFHPOvHaEYpBYwFDESMBAG
A1UEAwwJUHJvY3VyYUNBggkAuTOW/jeCxP4wEwYDVR0lBAwwCgYIKwYBBQUHAwIw
CwYDVR0PBAQDAgeAMA0GCSqGSIb3DQEBDQUAA4ICAQBOaoCA9wt7BlHHsusHonvA
YKA73VVEr8HWnDmQ36VrEDtyWXOoQUcjcWAUdsRmqJqtDEZoyYLsNzWSZr6/F488
LVfD6vo8GWlLqgXtvGTCTvUnJRu50lfkBS2Sy8LGvsrKNR+iyB5kNBzTb2R9rQLC
ATMoiHd3cdxEBkA3VWHKdF835jUqFmrK7LdoQE/j0tjm5l4/rVIScmmhnR8qhg6K
YEXkNxji2SZpbPoMOI4PsgIMkjkQvzttne884kC1TPXH1HidE3TCNfX0j1kmYnZ4
XlH6mddD5zahOxm/VsxriFAtgQvV2dc7ynuhIH9jYQev3BBwroApA0AW9GNZxWf7
aPYHTy28IW85TEbZ28nZEB0NXMD5kKfbKtX8MhzJR4H/OuTkNCXbbC/LTAd+N3t2
keqZxcnLN56iOG47+UnLQ3MVWGktOQNPRTNeTf8PLBW85VExRGfuaOYfEsDZXcP5
ln8APTyglbH9KR4hDAiQxhydRO5NkWbPsdC4a1dvCfRO/WyTU7ndOrtfeaOKU6PZ
qa666HqsFTi2bDlEw3SqMxQ4wKlquh2QKfQ5UvQ4Z7XGLBBxDv6LasO/ijeijY5y
VOs+QE1KRpiM/AorvHQ+jEHjlfR8Nge0uAZEIEt3/oYyQV8VP8MBkJ2uURGSWo3a
35QT8B/vlP44JO4exhDxrA==
-----END CERTIFICATE-----
