Certificate:
    Data:
        Version: 3 (0x2)
        Serial Number:
            b9:da:b0:c3:ac:e1:54:c4:15:d0:c3:0e:f5:2d:81:ae
    Signature Algorithm: sha512WithRSAEncryption
        Issuer: CN=ProcuraCA
        Validity
            Not Before: Nov 24 13:59:29 2022 GMT
            Not After : Nov 21 13:59:29 2032 GMT
        Subject: CN=telecamera35
        Subject Public Key Info:
            Public Key Algorithm: rsaEncryption
                Public-Key: (4096 bit)
                Modulus:
                    00:e0:98:ae:7a:77:e2:78:4e:54:28:f5:56:8d:a3:
                    40:fb:2c:75:c7:f9:1d:73:93:25:75:69:85:0b:80:
                    70:44:bc:b7:9d:bb:91:9d:ca:5f:93:77:8d:61:11:
                    af:b3:7e:a8:65:5f:0f:64:69:16:f6:4f:bd:e7:5a:
                    1b:ea:1b:11:88:cf:b5:41:03:8d:fe:e6:2e:45:9d:
                    ae:12:5a:e9:d7:5d:1c:a1:b9:31:df:07:d6:51:6d:
                    cb:87:64:5d:da:4c:b9:d5:dc:b0:b4:f2:5f:bf:35:
                    67:ac:2d:14:81:3e:e6:67:04:d6:dc:a4:94:ff:15:
                    d5:45:55:0c:27:96:62:5e:3e:26:42:f6:21:15:64:
                    10:91:82:1d:8c:77:26:b9:17:0b:7f:d1:50:e1:52:
                    93:45:ca:26:76:3e:c2:f1:5e:f4:b6:bf:b2:fd:dd:
                    b0:01:06:ed:a3:a5:7e:a6:e5:28:ff:11:9f:97:98:
                    24:78:5b:bd:e8:ef:bd:34:3e:73:0f:6d:a6:9e:c2:
                    fd:3b:b9:db:5e:b9:53:9c:77:06:28:b3:ad:fd:1e:
                    21:58:f5:ee:b6:37:72:1c:21:5c:b5:d0:2b:f7:7a:
                    c4:a4:02:a0:40:9c:70:b4:7b:b1:ee:bd:16:c2:c8:
                    fd:2c:27:3a:1c:18:98:32:f9:4a:ca:02:0d:13:e3:
                    8e:4b:61:e2:ea:58:a8:21:5e:cd:22:5b:0a:dd:1e:
                    67:48:7d:ee:b8:d1:b4:2d:9a:1a:3f:a9:18:40:87:
                    22:88:79:1d:fb:ac:71:f2:28:b2:31:76:48:ff:fd:
                    2f:e6:d5:09:c2:94:14:31:b5:e2:d2:db:ff:b2:3f:
                    13:f2:9e:65:93:4c:de:37:54:d7:5f:e5:0b:b1:17:
                    72:26:69:d7:b5:8f:0f:08:87:12:5c:97:b7:13:d6:
                    1c:3d:8e:e9:f6:34:3d:09:54:25:2c:5b:aa:03:d1:
                    0d:74:72:57:8a:e0:fc:f2:8f:68:33:9d:a4:61:3a:
                    06:3b:04:e3:3a:1b:c1:e7:b4:af:61:ac:c3:4a:25:
                    39:3b:7d:ba:c3:1c:85:5f:8a:6a:5c:30:56:aa:12:
                    c5:46:f6:4f:fc:a2:3c:ab:df:6e:6a:ea:ed:f5:34:
                    89:50:7a:9c:48:28:2f:f5:01:c2:65:68:fe:0d:60:
                    c8:72:30:62:95:04:22:a2:1b:de:c5:c5:b0:c6:41:
                    a8:e7:aa:8d:a3:16:be:7c:d6:6d:a1:c0:cd:41:78:
                    af:a8:7e:03:93:86:26:72:31:d7:fc:67:7e:ea:6a:
                    db:96:3e:9f:d9:ef:54:f6:f7:21:47:97:60:a5:eb:
                    b0:4b:6e:b9:b0:b7:f5:ed:8d:98:28:59:81:3c:0d:
                    03:d6:a5
                Exponent: 65537 (0x10001)
        X509v3 extensions:
            X509v3 Basic Constraints: 
                CA:FALSE
            X509v3 Subject Key Identifier: 
                7F:A5:E2:81:8C:69:C8:CD:16:99:B4:46:A8:C7:D6:D1:57:0F:0A:DC
            X509v3 Authority Key Identifier: 
                keyid:CA:1B:21:9C:1E:6A:07:17:12:46:0D:B8:1B:D0:EA:45:1C:F3:AF:1D
                DirName:/CN=ProcuraCA
                serial:B9:33:96:FE:37:82:C4:FE

            X509v3 Extended Key Usage: 
                TLS Web Client Authentication
            X509v3 Key Usage: 
                Digital Signature
    Signature Algorithm: sha512WithRSAEncryption
         1a:76:1e:6f:20:bc:70:dd:5a:fc:b0:fe:33:f5:b7:c1:9a:67:
         53:fb:bd:6c:d0:ce:bc:a5:82:ca:fe:d6:ba:34:07:3d:c0:47:
         18:42:54:b0:b8:f9:c1:d9:c2:f0:1f:49:e4:15:b6:84:03:9b:
         77:ba:b4:e2:31:2c:d4:09:46:f7:9c:d7:6a:de:7d:33:45:d8:
         76:74:8c:86:d6:b1:95:9c:27:41:93:1c:04:38:f9:17:98:93:
         cb:2c:26:8e:56:71:10:7e:b9:37:91:30:ba:16:d8:1c:99:31:
         79:b9:69:5b:69:90:b9:c0:ce:c8:f3:61:63:de:77:61:1b:90:
         94:0a:68:1b:50:bc:06:31:ef:24:28:ee:55:34:7b:a6:32:a8:
         fe:67:e9:4a:4e:e6:cd:49:3c:85:94:55:71:cc:1c:0f:97:34:
         6c:f2:b2:74:e7:57:fc:df:3e:f5:2a:f1:e7:d6:42:e7:bf:5a:
         4e:7e:81:a0:18:a4:48:20:51:56:04:de:56:45:3a:b7:8f:3e:
         d7:83:6e:91:fe:e2:2f:78:8a:b9:44:64:43:b5:8f:0a:a2:18:
         c4:6f:94:4b:09:26:ab:a5:6e:ad:5e:4a:91:ce:4a:c8:c0:a3:
         9f:be:15:46:f5:ba:f3:e1:e5:67:75:33:a7:bc:20:ba:f4:34:
         d4:30:cf:69:2e:ce:c8:5e:f6:c8:43:05:12:01:69:d2:3b:d2:
         41:ff:b0:c3:6f:3e:25:22:d3:94:a6:cd:d3:c8:97:c2:1c:19:
         21:7f:f5:b8:74:b0:d0:98:3d:3a:50:84:6f:e2:26:ff:61:57:
         78:02:01:de:51:fb:a0:be:2a:db:ce:1d:ee:9f:ee:9f:e8:d7:
         c9:11:6c:9d:e9:17:a2:3e:eb:28:39:ef:3d:6f:e4:6c:ca:81:
         dc:30:3d:65:11:92:a0:75:99:42:b4:95:04:78:1e:74:27:7e:
         30:50:0c:c0:ca:92:13:86:e0:53:de:12:6c:2b:94:62:8a:a9:
         b9:4b:69:f7:72:ce:62:d7:38:8b:6c:66:1f:0b:ef:1c:81:0e:
         31:e7:5e:4a:f6:14:18:4e:dd:1f:5a:91:66:1c:76:d8:11:03:
         6d:b3:45:f5:01:e9:ac:7b:38:83:bb:66:5a:7c:5c:db:54:24:
         56:46:94:f6:19:2f:f5:2f:fc:a1:88:a7:8e:af:32:33:c0:20:
         f1:71:0c:cb:a9:5c:18:7a:c0:2a:24:89:90:9e:45:34:fb:84:
         51:1c:63:b2:10:f1:f9:a1:72:17:3c:fb:31:e9:29:7d:a0:62:
         bf:d4:66:9e:31:3a:7f:43:70:3e:26:a7:10:56:5c:36:0b:c3:
         f0:36:65:ef:35:26:95:b7
-----BEGIN CERTIFICATE-----
MIIFTDCCAzSgAwIBAgIRALnasMOs4VTEFdDDDvUtga4wDQYJKoZIhvcNAQENBQAw
FDESMBAGA1UEAwwJUHJvY3VyYUNBMB4XDTIyMTEyNDEzNTkyOVoXDTMyMTEyMTEz
NTkyOVowFzEVMBMGA1UEAwwMdGVsZWNhbWVyYTM1MIICIjANBgkqhkiG9w0BAQEF
AAOCAg8AMIICCgKCAgEA4JiuenfieE5UKPVWjaNA+yx1x/kdc5MldWmFC4BwRLy3
nbuRncpfk3eNYRGvs36oZV8PZGkW9k+951ob6hsRiM+1QQON/uYuRZ2uElrp110c
obkx3wfWUW3Lh2Rd2ky51dywtPJfvzVnrC0UgT7mZwTW3KSU/xXVRVUMJ5ZiXj4m
QvYhFWQQkYIdjHcmuRcLf9FQ4VKTRcomdj7C8V70tr+y/d2wAQbto6V+puUo/xGf
l5gkeFu96O+9ND5zD22mnsL9O7nbXrlTnHcGKLOt/R4hWPXutjdyHCFctdAr93rE
pAKgQJxwtHux7r0Wwsj9LCc6HBiYMvlKygINE+OOS2Hi6lioIV7NIlsK3R5nSH3u
uNG0LZoaP6kYQIciiHkd+6xx8iiyMXZI//0v5tUJwpQUMbXi0tv/sj8T8p5lk0ze
N1TXX+ULsRdyJmnXtY8PCIcSXJe3E9YcPY7p9jQ9CVQlLFuqA9ENdHJXiuD88o9o
M52kYToGOwTjOhvB57SvYazDSiU5O326wxyFX4pqXDBWqhLFRvZP/KI8q99uaurt
9TSJUHqcSCgv9QHCZWj+DWDIcjBilQQiohvexcWwxkGo56qNoxa+fNZtocDNQXiv
qH4Dk4YmcjHX/Gd+6mrblj6f2e9U9vchR5dgpeuwS265sLf17Y2YKFmBPA0D1qUC
AwEAAaOBlTCBkjAJBgNVHRMEAjAAMB0GA1UdDgQWBBR/peKBjGnIzRaZtEaox9bR
Vw8K3DBEBgNVHSMEPTA7gBTKGyGcHmoHFxJGDbgb0OpFHPOvHaEYpBYwFDESMBAG
A1UEAwwJUHJvY3VyYUNBggkAuTOW/jeCxP4wEwYDVR0lBAwwCgYIKwYBBQUHAwIw
CwYDVR0PBAQDAgeAMA0GCSqGSIb3DQEBDQUAA4ICAQAadh5vILxw3Vr8sP4z9bfB
mmdT+71s0M68pYLK/ta6NAc9wEcYQlSwuPnB2cLwH0nkFbaEA5t3urTiMSzUCUb3
nNdq3n0zRdh2dIyG1rGVnCdBkxwEOPkXmJPLLCaOVnEQfrk3kTC6FtgcmTF5uWlb
aZC5wM7I82Fj3ndhG5CUCmgbULwGMe8kKO5VNHumMqj+Z+lKTubNSTyFlFVxzBwP
lzRs8rJ051f83z71KvHn1kLnv1pOfoGgGKRIIFFWBN5WRTq3jz7Xg26R/uIveIq5
RGRDtY8KohjEb5RLCSarpW6tXkqRzkrIwKOfvhVG9brz4eVndTOnvCC69DTUMM9p
Ls7IXvbIQwUSAWnSO9JB/7DDbz4lItOUps3TyJfCHBkhf/W4dLDQmD06UIRv4ib/
YVd4AgHeUfugvirbzh3un+6f6NfJEWyd6ReiPusoOe89b+RsyoHcMD1lEZKgdZlC
tJUEeB50J34wUAzAypIThuBT3hJsK5Riiqm5S2n3cs5i1ziLbGYfC+8cgQ4x515K
9hQYTt0fWpFmHHbYEQNts0X1AemseziDu2ZafFzbVCRWRpT2GS/1L/yhiKeOrzIz
wCDxcQzLqVwYesAqJImQnkU0+4RRHGOyEPH5oXIXPPsx6Sl9oGK/1GaeMTp/Q3A+
JqcQVlw2C8PwNmXvNSaVtw==
-----END CERTIFICATE-----
