Certificate:
    Data:
        Version: 3 (0x2)
        Serial Number:
            e0:76:db:df:1c:97:68:56:59:85:8c:1f:0b:f4:3d:9e
    Signature Algorithm: sha512WithRSAEncryption
        Issuer: CN=ProcuraCA
        Validity
            Not Before: Nov 24 14:00:41 2022 GMT
            Not After : Nov 21 14:00:41 2032 GMT
        Subject: CN=telecamera41
        Subject Public Key Info:
            Public Key Algorithm: rsaEncryption
                Public-Key: (4096 bit)
                Modulus:
                    00:c1:1f:d3:2a:a4:e0:17:a4:18:84:4b:9f:5b:58:
                    db:50:8d:58:15:85:c6:1d:03:b9:dc:96:59:f8:51:
                    73:b3:bd:73:e8:51:2b:aa:fb:4d:c7:9b:eb:72:c5:
                    41:af:f3:7d:ef:c7:3f:00:33:22:a1:22:a8:63:3d:
                    8e:f1:ed:cb:09:fe:43:e5:9a:35:0f:92:ce:f0:35:
                    06:63:bb:36:f0:2d:a2:1f:00:1b:8f:97:47:44:69:
                    dc:f7:c1:0c:f4:81:be:70:f4:ec:6c:35:c5:34:d3:
                    76:e7:b3:23:37:b1:25:d1:0f:47:0f:55:3a:d1:29:
                    25:1c:da:b5:e3:9f:e6:07:a1:1b:15:5d:13:0b:d6:
                    73:e3:ac:e6:32:8c:64:8e:c3:6a:91:72:a6:33:e0:
                    12:7e:ce:c7:7c:2e:64:27:1b:9a:67:77:7f:00:e3:
                    33:58:0b:a1:7c:94:12:b6:d9:82:d4:50:a5:02:a3:
                    72:0e:39:09:91:e3:0e:f9:12:6f:0e:25:da:5d:83:
                    4c:b7:73:af:2b:bb:4b:cb:ea:17:da:95:27:8b:a0:
                    28:4a:c2:97:44:89:a8:87:5c:5e:49:34:ad:a5:b5:
                    b1:da:80:96:5c:13:de:7d:69:7a:ec:09:ac:c5:1e:
                    e7:08:4c:a9:a5:6f:d3:78:07:c6:3e:77:e4:7c:48:
                    80:a7:e4:32:35:80:12:22:17:68:0a:aa:82:31:30:
                    10:1e:8a:11:e5:63:bc:e4:cd:cf:e9:87:df:e5:65:
                    50:01:d1:1b:dc:4c:a5:6e:69:8f:0e:30:b2:0d:13:
                    61:8b:65:18:a4:d0:6e:34:83:bf:f1:e9:1c:4d:8d:
                    bf:b7:51:52:51:be:e8:0a:68:7a:6e:2e:fd:a6:ce:
                    9c:20:46:da:c6:48:53:9f:52:c6:60:a9:60:a6:3a:
                    a5:11:39:af:48:a1:04:91:29:c3:e0:ab:9f:e9:81:
                    46:91:23:59:0e:e2:72:d3:58:64:17:b0:f5:0e:a4:
                    e5:91:5a:98:93:64:3f:90:1b:9a:9b:2e:a1:ba:c5:
                    69:fc:a5:db:d6:15:09:15:60:47:7f:c5:b8:7f:7e:
                    df:57:95:a3:a1:67:02:39:47:c6:ea:85:11:27:df:
                    6c:b1:17:77:50:24:9e:de:99:01:b0:68:a7:b5:b3:
                    79:cc:c2:5b:d3:ff:e7:ff:4e:d5:e8:a4:c2:b6:5f:
                    20:16:c4:0b:a8:40:ec:0c:03:ad:62:fb:09:9e:fa:
                    4b:2d:41:cd:90:a8:12:fd:5b:dc:f2:97:1e:f2:ad:
                    37:41:8f:72:95:3b:01:75:88:48:5a:44:4d:23:93:
                    a7:7d:64:dd:a5:c1:8f:ff:6a:c3:ea:be:b3:f5:d0:
                    c4:57:07
                Exponent: 65537 (0x10001)
        X509v3 extensions:
            X509v3 Basic Constraints: 
                CA:FALSE
            X509v3 Subject Key Identifier: 
                74:15:26:90:43:84:2D:FF:11:C2:CD:AF:D0:65:ED:87:FD:6A:BF:9F
            X509v3 Authority Key Identifier: 
                keyid:CA:1B:21:9C:1E:6A:07:17:12:46:0D:B8:1B:D0:EA:45:1C:F3:AF:1D
                DirName:/CN=ProcuraCA
                serial:B9:33:96:FE:37:82:C4:FE

            X509v3 Extended Key Usage: 
                TLS Web Client Authentication
            X509v3 Key Usage: 
                Digital Signature
    Signature Algorithm: sha512WithRSAEncryption
         70:2c:00:d0:0a:c4:36:c1:f1:8e:82:e2:c2:57:21:8a:24:86:
         9b:18:a8:43:af:d6:00:d9:1d:87:e7:a2:fd:78:cd:33:8b:b5:
         17:e1:32:bf:bc:c4:7c:3f:8d:0a:4b:77:fd:42:57:12:61:dc:
         7a:9c:ac:15:7a:61:a2:9d:08:24:6c:b2:eb:4e:ed:45:34:2d:
         12:3e:d7:99:b9:5b:5a:47:22:16:3c:77:0b:d1:4d:f9:b0:ed:
         9c:98:43:23:ce:61:08:30:91:4e:96:f0:d7:21:21:19:83:bd:
         06:c6:05:28:17:12:74:12:03:b2:6b:81:48:b6:f2:1b:eb:99:
         87:62:1e:87:60:93:24:85:ed:09:2b:06:c3:a6:e6:45:26:dc:
         0f:30:c6:00:1e:b1:52:e3:38:d8:1a:e6:8d:88:17:86:7c:61:
         84:ee:9f:76:40:a3:c4:a3:c0:d0:fa:70:24:14:e9:fe:88:ab:
         08:95:25:44:2a:37:5f:2f:4f:09:87:4f:04:df:9f:2f:3a:62:
         ed:a7:e2:d0:85:bb:a1:8f:60:33:2c:1b:10:a9:ac:97:29:d2:
         2c:f5:9d:42:a3:85:65:47:66:93:e1:3b:df:a1:97:28:8b:2a:
         2e:99:58:32:0e:7d:c5:b2:00:89:37:05:40:90:10:9b:76:0b:
         0c:dc:0a:31:c8:6c:d6:41:5a:ff:cc:2d:b4:3e:e1:a3:4d:cc:
         eb:fe:db:ec:e5:6f:df:30:c5:dc:02:3d:c3:fb:d3:3e:e9:01:
         f5:98:56:fd:ae:cd:e1:3b:6e:4d:b0:d0:99:45:4d:f6:65:49:
         77:08:96:7e:25:2b:7a:94:68:de:7f:8a:4a:81:ea:fb:f1:c9:
         bd:0c:a8:6c:aa:b9:71:e6:9c:80:76:34:df:d6:5c:92:8f:ea:
         00:ef:bb:d8:77:c1:47:7c:e2:e9:33:ad:2b:46:42:74:b6:af:
         98:74:e1:46:88:4c:76:c6:4d:8e:f6:0e:b9:16:1d:22:8f:af:
         14:2f:ba:27:a9:5d:fb:b5:6e:14:b2:64:5e:bc:63:17:b0:06:
         ac:a1:16:71:26:f0:2b:da:a6:ac:fd:5b:e8:cd:56:16:c4:80:
         86:0f:7b:de:ed:f6:32:19:a2:02:03:13:34:9c:91:4f:67:0d:
         83:ba:b0:58:25:d4:3f:cb:02:b4:97:09:20:e4:3d:a9:a6:e5:
         db:33:cd:bb:38:db:fa:2f:d1:03:9a:7b:d9:4a:a3:bb:58:c1:
         37:78:d7:fd:d8:93:70:da:81:0d:fa:a7:74:af:5f:c3:80:81:
         79:8c:1e:44:25:77:48:6c:81:5c:e0:eb:b5:49:77:b0:6f:71:
         03:d1:d0:46:16:cc:7f:d3
-----BEGIN CERTIFICATE-----
MIIFTDCCAzSgAwIBAgIRAOB2298cl2hWWYWMHwv0PZ4wDQYJKoZIhvcNAQENBQAw
FDESMBAGA1UEAwwJUHJvY3VyYUNBMB4XDTIyMTEyNDE0MDA0MVoXDTMyMTEyMTE0
MDA0MVowFzEVMBMGA1UEAwwMdGVsZWNhbWVyYTQxMIICIjANBgkqhkiG9w0BAQEF
AAOCAg8AMIICCgKCAgEAwR/TKqTgF6QYhEufW1jbUI1YFYXGHQO53JZZ+FFzs71z
6FErqvtNx5vrcsVBr/N978c/ADMioSKoYz2O8e3LCf5D5Zo1D5LO8DUGY7s28C2i
HwAbj5dHRGnc98EM9IG+cPTsbDXFNNN257MjN7El0Q9HD1U60SklHNq145/mB6Eb
FV0TC9Zz46zmMoxkjsNqkXKmM+ASfs7HfC5kJxuaZ3d/AOMzWAuhfJQSttmC1FCl
AqNyDjkJkeMO+RJvDiXaXYNMt3OvK7tLy+oX2pUni6AoSsKXRImoh1xeSTStpbWx
2oCWXBPefWl67AmsxR7nCEyppW/TeAfGPnfkfEiAp+QyNYASIhdoCqqCMTAQHooR
5WO85M3P6Yff5WVQAdEb3EylbmmPDjCyDRNhi2UYpNBuNIO/8ekcTY2/t1FSUb7o
Cmh6bi79ps6cIEbaxkhTn1LGYKlgpjqlETmvSKEEkSnD4Kuf6YFGkSNZDuJy01hk
F7D1DqTlkVqYk2Q/kBuamy6husVp/KXb1hUJFWBHf8W4f37fV5WjoWcCOUfG6oUR
J99ssRd3UCSe3pkBsGintbN5zMJb0//n/07V6KTCtl8gFsQLqEDsDAOtYvsJnvpL
LUHNkKgS/Vvc8pce8q03QY9ylTsBdYhIWkRNI5OnfWTdpcGP/2rD6r6z9dDEVwcC
AwEAAaOBlTCBkjAJBgNVHRMEAjAAMB0GA1UdDgQWBBR0FSaQQ4Qt/xHCza/QZe2H
/Wq/nzBEBgNVHSMEPTA7gBTKGyGcHmoHFxJGDbgb0OpFHPOvHaEYpBYwFDESMBAG
A1UEAwwJUHJvY3VyYUNBggkAuTOW/jeCxP4wEwYDVR0lBAwwCgYIKwYBBQUHAwIw
CwYDVR0PBAQDAgeAMA0GCSqGSIb3DQEBDQUAA4ICAQBwLADQCsQ2wfGOguLCVyGK
JIabGKhDr9YA2R2H56L9eM0zi7UX4TK/vMR8P40KS3f9QlcSYdx6nKwVemGinQgk
bLLrTu1FNC0SPteZuVtaRyIWPHcL0U35sO2cmEMjzmEIMJFOlvDXISEZg70GxgUo
FxJ0EgOya4FItvIb65mHYh6HYJMkhe0JKwbDpuZFJtwPMMYAHrFS4zjYGuaNiBeG
fGGE7p92QKPEo8DQ+nAkFOn+iKsIlSVEKjdfL08Jh08E358vOmLtp+LQhbuhj2Az
LBsQqayXKdIs9Z1Co4VlR2aT4TvfoZcoiyoumVgyDn3FsgCJNwVAkBCbdgsM3Aox
yGzWQVr/zC20PuGjTczr/tvs5W/fMMXcAj3D+9M+6QH1mFb9rs3hO25NsNCZRU32
ZUl3CJZ+JSt6lGjef4pKger78cm9DKhsqrlx5pyAdjTf1lySj+oA77vYd8FHfOLp
M60rRkJ0tq+YdOFGiEx2xk2O9g65Fh0ij68UL7onqV37tW4UsmRevGMXsAasoRZx
JvAr2qas/VvozVYWxICGD3ve7fYyGaICAxM0nJFPZw2DurBYJdQ/ywK0lwkg5D2p
puXbM827ONv6L9EDmnvZSqO7WME3eNf92JNw2oEN+qd0r1/DgIF5jB5EJXdIbIFc
4Ou1SXewb3ED0dBGFsx/0w==
-----END CERTIFICATE-----
