Certificate:
    Data:
        Version: 3 (0x2)
        Serial Number:
            99:8a:5a:40:41:58:77:0b:ca:c6:cc:76:38:0c:fb:a4
    Signature Algorithm: sha512WithRSAEncryption
        Issuer: CN=ProcuraCA
        Validity
            Not Before: Nov 24 14:00:18 2022 GMT
            Not After : Nov 21 14:00:18 2032 GMT
        Subject: CN=telecamera40
        Subject Public Key Info:
            Public Key Algorithm: rsaEncryption
                Public-Key: (4096 bit)
                Modulus:
                    00:ea:81:ef:5b:d1:d8:d1:5d:d9:be:0b:4c:59:df:
                    86:69:7e:14:ff:a1:4f:94:57:a0:bf:72:fb:03:81:
                    18:15:85:92:98:4c:c6:6f:77:be:06:1f:1a:59:fc:
                    0b:dc:75:47:13:a0:1f:b3:4f:d4:56:a7:c0:af:25:
                    ed:b9:1d:e7:29:0e:4b:cb:f5:a7:64:3c:e8:d1:3a:
                    b2:23:c0:57:8a:34:d5:98:6d:8c:39:f4:67:0a:90:
                    40:1f:48:41:e5:fc:cc:7c:2f:60:ec:c3:68:37:86:
                    cb:1b:76:cc:30:45:54:b8:01:4c:b5:d5:96:48:b9:
                    fd:63:1b:cb:07:57:41:02:ba:e9:e0:f0:3b:e1:ee:
                    22:7c:92:73:d1:73:68:98:f4:a7:33:f0:97:52:97:
                    d6:02:1d:35:b8:4b:f6:02:45:49:f6:bf:ce:4d:b0:
                    5b:53:a5:f8:c9:59:4f:cb:cd:f0:56:72:51:6e:12:
                    e7:f4:39:fc:66:af:12:c7:8f:75:1b:98:ea:99:6d:
                    a1:04:b9:37:74:ff:ee:96:20:1a:de:16:03:0f:13:
                    10:28:79:77:82:01:7a:b5:ee:6d:fc:2d:bb:ca:31:
                    46:59:36:56:ef:e8:8a:ab:cf:5c:a7:27:09:d1:2e:
                    d8:c9:d3:a6:a5:22:08:b3:6f:b6:60:1a:10:8f:06:
                    44:59:86:5e:02:bf:a1:e4:72:7a:b5:0f:40:61:9a:
                    97:79:f8:f1:14:88:32:6b:81:57:10:b3:36:47:15:
                    e9:6f:2d:8c:70:a6:61:e4:6b:15:7b:56:22:3e:56:
                    17:2d:36:fa:cb:90:60:63:25:f0:c7:c5:b8:45:30:
                    04:75:80:23:41:ce:d4:01:33:f2:87:45:9f:1a:b3:
                    e8:45:a5:85:cb:e2:08:78:e4:a3:28:ae:c9:17:b8:
                    d8:86:0c:b2:84:d1:7c:88:7a:76:bb:4e:80:a8:e6:
                    eb:d3:89:56:35:dc:d8:82:2f:c1:c7:81:6c:cb:02:
                    15:04:91:cb:dd:5e:59:3c:9d:30:25:17:b0:c9:81:
                    70:29:42:f7:e4:07:c4:c7:60:f5:37:49:40:85:9a:
                    df:8e:e5:89:39:5a:18:12:b0:5f:8b:34:5f:a3:58:
                    fb:23:49:c9:b7:e4:28:c6:9a:66:19:27:86:6f:ab:
                    c9:ee:6c:bb:9b:f0:37:f0:c9:2d:54:c3:26:e7:9e:
                    0f:99:f0:92:91:0e:84:52:68:f5:87:38:50:dc:f7:
                    ff:0e:f9:0f:d0:10:03:d6:4e:70:4a:b4:24:ac:37:
                    2b:40:a2:19:ee:dd:eb:fe:f9:46:1b:5d:5d:1e:bc:
                    3c:1b:f0:24:e8:5f:90:d0:1a:44:d7:b5:ca:2d:b6:
                    24:5e:cb
                Exponent: 65537 (0x10001)
        X509v3 extensions:
            X509v3 Basic Constraints: 
                CA:FALSE
            X509v3 Subject Key Identifier: 
                FF:CF:55:E7:C1:F3:58:31:E7:BA:FE:D8:26:1A:63:F6:91:46:F7:1E
            X509v3 Authority Key Identifier: 
                keyid:CA:1B:21:9C:1E:6A:07:17:12:46:0D:B8:1B:D0:EA:45:1C:F3:AF:1D
                DirName:/CN=ProcuraCA
                serial:B9:33:96:FE:37:82:C4:FE

            X509v3 Extended Key Usage: 
                TLS Web Client Authentication
            X509v3 Key Usage: 
                Digital Signature
    Signature Algorithm: sha512WithRSAEncryption
         c3:1a:e5:8d:0c:13:e8:24:bb:cc:01:8e:fa:0a:be:9b:2d:54:
         3b:d1:6f:80:fe:38:2a:06:97:60:65:1b:d2:df:35:4b:9f:b6:
         a4:94:0a:62:1a:c7:ad:e8:7b:9d:d5:92:42:5d:0f:07:e0:de:
         8b:30:3f:af:fd:1a:79:44:12:a9:af:ba:15:7a:8a:49:a0:ee:
         36:c5:d6:e2:49:1c:e2:ac:49:ed:b2:54:12:e4:46:36:cb:65:
         d6:ca:2f:96:ea:98:6e:65:cc:5e:8a:89:88:84:2b:6a:c4:ab:
         52:f3:75:aa:e1:18:24:4e:a6:65:a5:da:48:e1:9d:fa:11:92:
         88:0b:7b:43:1d:fd:9e:8f:dc:21:a2:03:4b:2e:ec:c4:2a:7c:
         6f:d9:fd:ef:60:d9:b6:e9:6a:06:18:17:78:ae:f1:3d:8b:03:
         76:92:a5:70:91:c5:5d:71:4c:1c:de:bb:3a:93:cd:37:23:23:
         f6:92:0e:8f:5a:74:33:84:02:3c:4a:4a:ab:ff:71:26:e6:29:
         91:b5:81:dc:83:04:93:77:4d:25:2d:44:a3:f7:85:02:24:9c:
         04:86:7d:26:5d:7e:db:aa:9f:16:1f:52:de:7b:c4:a9:5d:f9:
         dd:7d:b2:db:4e:1f:3b:b4:2b:86:01:5c:69:14:ca:43:9b:4c:
         90:7d:32:86:3f:92:fa:69:a3:56:a0:30:71:a7:f5:86:83:4a:
         36:00:f8:3a:56:32:98:da:06:fc:14:a8:bd:34:3b:eb:f8:4b:
         37:fd:d7:c5:4d:3e:cd:e6:52:fa:e2:b4:64:20:28:43:3b:48:
         f0:7c:1b:55:d3:8a:3b:ea:f7:27:d8:11:dd:7a:8d:59:a8:dc:
         17:5d:e5:f4:13:23:e5:d9:23:1c:f9:a0:59:34:20:30:f6:0d:
         77:54:2c:12:34:cd:2c:5b:a4:b1:65:0d:b0:34:b8:a8:71:32:
         8c:67:6d:63:cb:ab:81:57:84:e9:91:d6:97:25:4e:5c:85:4f:
         df:ad:a0:f5:a2:d6:ee:ca:bd:cc:ee:fd:85:ba:c5:0c:3a:dd:
         d2:a2:f8:a7:1a:bd:57:2d:71:19:20:83:2a:f9:41:16:57:ca:
         93:9b:b3:dd:23:7f:f2:5d:1d:79:2e:7a:f3:2e:03:78:02:08:
         c0:82:ca:68:fc:a5:7e:a9:aa:e5:bf:fb:f4:b5:83:98:72:a1:
         c2:b8:0e:11:f6:a9:c1:89:0e:8e:ab:11:8c:12:6b:95:c6:a5:
         09:35:fe:6d:9c:b1:a6:a3:b4:69:c3:cd:b4:ba:92:cc:75:44:
         67:5f:e8:b9:79:35:ec:57:f0:76:ff:b6:8c:d6:f3:04:be:a1:
         da:e7:9a:f4:43:d9:e5:c5
-----BEGIN CERTIFICATE-----
MIIFTDCCAzSgAwIBAgIRAJmKWkBBWHcLysbMdjgM+6QwDQYJKoZIhvcNAQENBQAw
FDESMBAGA1UEAwwJUHJvY3VyYUNBMB4XDTIyMTEyNDE0MDAxOFoXDTMyMTEyMTE0
MDAxOFowFzEVMBMGA1UEAwwMdGVsZWNhbWVyYTQwMIICIjANBgkqhkiG9w0BAQEF
AAOCAg8AMIICCgKCAgEA6oHvW9HY0V3ZvgtMWd+GaX4U/6FPlFegv3L7A4EYFYWS
mEzGb3e+Bh8aWfwL3HVHE6Afs0/UVqfAryXtuR3nKQ5Ly/WnZDzo0TqyI8BXijTV
mG2MOfRnCpBAH0hB5fzMfC9g7MNoN4bLG3bMMEVUuAFMtdWWSLn9YxvLB1dBArrp
4PA74e4ifJJz0XNomPSnM/CXUpfWAh01uEv2AkVJ9r/OTbBbU6X4yVlPy83wVnJR
bhLn9Dn8Zq8Sx491G5jqmW2hBLk3dP/uliAa3hYDDxMQKHl3ggF6te5t/C27yjFG
WTZW7+iKq89cpycJ0S7YydOmpSIIs2+2YBoQjwZEWYZeAr+h5HJ6tQ9AYZqXefjx
FIgya4FXELM2RxXpby2McKZh5GsVe1YiPlYXLTb6y5BgYyXwx8W4RTAEdYAjQc7U
ATPyh0WfGrPoRaWFy+IIeOSjKK7JF7jYhgyyhNF8iHp2u06AqObr04lWNdzYgi/B
x4FsywIVBJHL3V5ZPJ0wJRewyYFwKUL35AfEx2D1N0lAhZrfjuWJOVoYErBfizRf
o1j7I0nJt+QoxppmGSeGb6vJ7my7m/A38MktVMMm554PmfCSkQ6EUmj1hzhQ3Pf/
DvkP0BAD1k5wSrQkrDcrQKIZ7t3r/vlGG11dHrw8G/Ak6F+Q0BpE17XKLbYkXssC
AwEAAaOBlTCBkjAJBgNVHRMEAjAAMB0GA1UdDgQWBBT/z1XnwfNYMee6/tgmGmP2
kUb3HjBEBgNVHSMEPTA7gBTKGyGcHmoHFxJGDbgb0OpFHPOvHaEYpBYwFDESMBAG
A1UEAwwJUHJvY3VyYUNBggkAuTOW/jeCxP4wEwYDVR0lBAwwCgYIKwYBBQUHAwIw
CwYDVR0PBAQDAgeAMA0GCSqGSIb3DQEBDQUAA4ICAQDDGuWNDBPoJLvMAY76Cr6b
LVQ70W+A/jgqBpdgZRvS3zVLn7aklApiGset6Hud1ZJCXQ8H4N6LMD+v/Rp5RBKp
r7oVeopJoO42xdbiSRzirEntslQS5EY2y2XWyi+W6phuZcxeiomIhCtqxKtS83Wq
4RgkTqZlpdpI4Z36EZKIC3tDHf2ej9whogNLLuzEKnxv2f3vYNm26WoGGBd4rvE9
iwN2kqVwkcVdcUwc3rs6k803IyP2kg6PWnQzhAI8Skqr/3Em5imRtYHcgwSTd00l
LUSj94UCJJwEhn0mXX7bqp8WH1Lee8SpXfndfbLbTh87tCuGAVxpFMpDm0yQfTKG
P5L6aaNWoDBxp/WGg0o2APg6VjKY2gb8FKi9NDvr+Es3/dfFTT7N5lL64rRkIChD
O0jwfBtV04o76vcn2BHdeo1ZqNwXXeX0EyPl2SMc+aBZNCAw9g13VCwSNM0sW6Sx
ZQ2wNLiocTKMZ21jy6uBV4TpkdaXJU5chU/fraD1otbuyr3M7v2FusUMOt3Sovin
Gr1XLXEZIIMq+UEWV8qTm7PdI3/yXR15LnrzLgN4AgjAgspo/KV+qarlv/v0tYOY
cqHCuA4R9qnBiQ6OqxGMEmuVxqUJNf5tnLGmo7Rpw820upLMdURnX+i5eTXsV/B2
/7aM1vMEvqHa55r0Q9nlxQ==
-----END CERTIFICATE-----
