Certificate:
    Data:
        Version: 3 (0x2)
        Serial Number:
            d4:dd:5b:a2:8a:cc:37:9a:aa:2a:78:2c:51:e3:c8:96
    Signature Algorithm: sha512WithRSAEncryption
        Issuer: CN=ProcuraCA
        Validity
            Not Before: Nov 24 13:59:57 2022 GMT
            Not After : Nov 21 13:59:57 2032 GMT
        Subject: CN=telecamera38
        Subject Public Key Info:
            Public Key Algorithm: rsaEncryption
                Public-Key: (4096 bit)
                Modulus:
                    00:95:9e:59:01:8e:3b:4a:ce:7d:86:04:4f:6d:33:
                    a5:0f:04:28:7b:da:3a:48:a2:67:ee:25:7c:2f:f5:
                    a9:70:51:2c:3b:3e:f8:80:ed:87:86:77:07:e9:65:
                    34:c5:f8:10:98:55:e5:91:cc:8b:dd:5f:95:07:2f:
                    07:63:52:ea:98:ec:00:6b:bc:10:c5:b8:be:1d:ca:
                    e6:2d:69:db:50:77:ce:69:ec:5f:53:9f:22:a9:d9:
                    bb:7b:84:16:45:79:2d:4b:9d:2d:81:29:5e:6b:75:
                    a9:e5:fd:fd:55:a9:af:1c:93:15:dc:d6:6a:7f:a2:
                    cf:1f:bb:d5:f6:ef:fb:56:57:12:1f:6e:ea:0a:cf:
                    ee:30:2d:c5:61:e4:91:9c:c2:17:1d:0b:fd:93:cc:
                    05:00:21:a3:72:d0:ac:a0:ca:75:34:27:b6:ff:36:
                    c4:09:ac:b2:6e:78:c4:ef:72:ce:98:97:48:84:c9:
                    60:01:64:23:7f:5b:59:d0:ec:da:39:ff:a3:aa:cd:
                    3f:23:61:18:d7:c7:5c:61:30:74:3f:8f:2e:02:b6:
                    e2:b3:ef:64:d9:33:cd:d3:05:da:85:d5:ab:11:61:
                    f2:a9:ee:78:7d:25:43:36:6d:0a:8c:78:92:54:ec:
                    b3:cb:51:ae:68:86:1c:44:e1:5a:a4:f0:c3:d8:6b:
                    22:b0:c7:2e:a4:34:d1:f3:5b:85:57:16:63:67:c6:
                    46:7c:ce:8a:80:fb:03:e2:0a:c6:79:62:dc:64:57:
                    7c:97:d2:4d:88:17:12:7b:86:0a:eb:c1:57:8f:6d:
                    91:ac:d2:e7:71:6a:ba:8e:5b:4f:b5:1d:f1:09:3e:
                    76:8a:90:b8:ad:93:51:22:9a:22:68:be:cd:36:5d:
                    25:26:a0:5f:75:a0:5b:57:be:b4:6f:65:17:fe:bf:
                    1e:7d:2a:5f:d3:92:89:11:7f:37:85:99:45:c2:ff:
                    60:1d:05:b5:f7:69:a5:4a:b5:ee:87:b6:71:2d:e7:
                    ac:9b:16:6c:af:91:d8:80:c4:71:1d:2d:a7:eb:e5:
                    19:a2:6b:b7:fc:83:89:b8:a9:e2:3b:3f:7d:16:d5:
                    e6:55:03:2c:93:4c:3f:17:b9:c4:cd:e3:0b:89:34:
                    74:80:ac:5a:bf:e7:e4:94:90:5c:69:3b:c4:2c:16:
                    d9:32:f5:21:bd:7b:eb:9e:d3:88:0d:2a:77:ac:aa:
                    90:6f:a7:da:77:44:4f:0c:20:e2:01:d2:5b:32:4a:
                    37:e4:ab:e9:e0:5b:88:90:0a:e4:c2:a3:46:38:c9:
                    6f:02:29:79:67:cf:f6:ae:9a:97:0e:a5:4e:da:5d:
                    02:8a:bb:1e:d8:b9:0e:7c:ba:ae:b9:de:8a:56:e7:
                    4d:e2:c1
                Exponent: 65537 (0x10001)
        X509v3 extensions:
            X509v3 Basic Constraints: 
                CA:FALSE
            X509v3 Subject Key Identifier: 
                34:30:C7:59:91:FE:0A:3A:C9:86:C6:F7:59:55:CD:ED:47:7D:EF:FB
            X509v3 Authority Key Identifier: 
                keyid:CA:1B:21:9C:1E:6A:07:17:12:46:0D:B8:1B:D0:EA:45:1C:F3:AF:1D
                DirName:/CN=ProcuraCA
                serial:B9:33:96:FE:37:82:C4:FE

            X509v3 Extended Key Usage: 
                TLS Web Client Authentication
            X509v3 Key Usage: 
                Digital Signature
    Signature Algorithm: sha512WithRSAEncryption
         87:1c:10:19:ec:06:15:ce:e7:8e:13:ce:24:73:a8:dd:05:80:
         25:79:a9:67:ab:70:98:74:a0:2b:e4:37:e0:63:cd:1f:e8:8a:
         5b:e5:fe:a1:93:80:f5:4c:b2:d2:e1:30:2e:31:de:02:35:ea:
         e0:7c:14:9e:a4:f3:90:28:3d:86:6f:f1:d7:3e:f1:ae:3f:ef:
         65:28:3e:2f:c9:ab:a3:24:3f:11:33:23:89:4f:fa:2f:17:cf:
         c4:3b:8f:fa:0f:76:d1:dc:39:d3:d4:26:17:2d:88:32:5f:d3:
         60:44:7d:b1:9e:49:39:b4:fe:c5:44:5b:d5:bf:bc:44:a9:43:
         a6:4c:de:8e:75:c0:fe:d7:8b:2d:a1:1f:20:f0:75:2a:69:18:
         8f:f4:1d:55:ff:f3:77:d5:65:1a:07:25:a0:16:3a:9e:6d:6d:
         f3:8c:59:aa:d3:05:e3:69:fc:c8:69:b8:78:1b:c5:17:05:26:
         53:91:f3:21:66:f3:e3:36:b5:cf:1a:1d:4f:5f:f9:6c:0d:94:
         c4:da:20:fa:b1:77:08:05:10:36:04:02:d9:a7:45:2e:e1:b3:
         06:fd:c5:1e:19:b1:5b:d2:ce:b8:6f:c3:5a:10:79:cd:ce:18:
         64:00:81:bd:de:d0:97:9c:af:31:ac:db:df:29:06:5b:da:0b:
         dc:a3:eb:6a:cd:cf:99:f9:a4:c5:e3:c7:5e:ab:38:17:0a:ad:
         f3:68:35:01:1a:a7:8f:dc:9d:89:aa:63:87:41:51:99:91:9b:
         fb:42:c6:b1:e6:da:ca:e6:5a:bb:6a:f9:1d:71:0d:fd:bd:ca:
         6e:ca:43:93:10:9a:27:54:e6:c9:96:90:7a:05:3d:ac:00:a2:
         6e:a0:a4:05:82:cc:d3:ee:13:fa:ea:c5:8a:41:33:8d:78:be:
         9e:13:72:f5:b5:0d:63:cb:40:d1:6c:85:8d:3c:1c:a1:01:62:
         aa:d7:15:1f:ca:b8:5c:0b:78:0c:87:9b:42:e9:13:b1:f1:cd:
         d0:2a:e5:00:fd:10:3c:7c:06:b7:51:a0:6a:9e:00:8d:45:33:
         83:22:d8:68:14:fb:1d:3a:7e:de:b1:86:90:3d:5f:0a:f7:bf:
         7f:5e:9b:bb:0d:17:5b:3b:04:1d:2f:f3:a6:d3:2e:5f:b7:13:
         52:a3:52:a6:f9:5f:d8:ff:30:eb:60:6f:28:4f:2a:3d:71:d5:
         81:29:ad:3a:2d:df:a5:a9:a2:53:5f:f9:a0:75:26:46:4c:a6:
         34:c9:47:4b:40:9f:07:34:5a:f9:fd:27:95:4f:7f:51:ea:53:
         b9:f1:20:cf:f6:1d:c0:83:c0:7b:17:4b:50:2f:3f:bd:14:84:
         98:49:c2:4a:93:88:fb:0b
-----BEGIN CERTIFICATE-----
MIIFTDCCAzSgAwIBAgIRANTdW6KKzDeaqip4LFHjyJYwDQYJKoZIhvcNAQENBQAw
FDESMBAGA1UEAwwJUHJvY3VyYUNBMB4XDTIyMTEyNDEzNTk1N1oXDTMyMTEyMTEz
NTk1N1owFzEVMBMGA1UEAwwMdGVsZWNhbWVyYTM4MIICIjANBgkqhkiG9w0BAQEF
AAOCAg8AMIICCgKCAgEAlZ5ZAY47Ss59hgRPbTOlDwQoe9o6SKJn7iV8L/WpcFEs
Oz74gO2HhncH6WU0xfgQmFXlkcyL3V+VBy8HY1LqmOwAa7wQxbi+HcrmLWnbUHfO
aexfU58iqdm7e4QWRXktS50tgSlea3Wp5f39VamvHJMV3NZqf6LPH7vV9u/7VlcS
H27qCs/uMC3FYeSRnMIXHQv9k8wFACGjctCsoMp1NCe2/zbECayybnjE73LOmJdI
hMlgAWQjf1tZ0OzaOf+jqs0/I2EY18dcYTB0P48uArbis+9k2TPN0wXahdWrEWHy
qe54fSVDNm0KjHiSVOyzy1GuaIYcROFapPDD2GsisMcupDTR81uFVxZjZ8ZGfM6K
gPsD4grGeWLcZFd8l9JNiBcSe4YK68FXj22RrNLncWq6jltPtR3xCT52ipC4rZNR
IpoiaL7NNl0lJqBfdaBbV760b2UX/r8efSpf05KJEX83hZlFwv9gHQW192mlSrXu
h7ZxLeesmxZsr5HYgMRxHS2n6+UZomu3/IOJuKniOz99FtXmVQMsk0w/F7nEzeML
iTR0gKxav+fklJBcaTvELBbZMvUhvXvrntOIDSp3rKqQb6fad0RPDCDiAdJbMko3
5Kvp4FuIkArkwqNGOMlvAil5Z8/2rpqXDqVO2l0Cirse2LkOfLquud6KVudN4sEC
AwEAAaOBlTCBkjAJBgNVHRMEAjAAMB0GA1UdDgQWBBQ0MMdZkf4KOsmGxvdZVc3t
R33v+zBEBgNVHSMEPTA7gBTKGyGcHmoHFxJGDbgb0OpFHPOvHaEYpBYwFDESMBAG
A1UEAwwJUHJvY3VyYUNBggkAuTOW/jeCxP4wEwYDVR0lBAwwCgYIKwYBBQUHAwIw
CwYDVR0PBAQDAgeAMA0GCSqGSIb3DQEBDQUAA4ICAQCHHBAZ7AYVzueOE84kc6jd
BYAlealnq3CYdKAr5DfgY80f6Ipb5f6hk4D1TLLS4TAuMd4CNergfBSepPOQKD2G
b/HXPvGuP+9lKD4vyaujJD8RMyOJT/ovF8/EO4/6D3bR3DnT1CYXLYgyX9NgRH2x
nkk5tP7FRFvVv7xEqUOmTN6OdcD+14stoR8g8HUqaRiP9B1V//N31WUaByWgFjqe
bW3zjFmq0wXjafzIabh4G8UXBSZTkfMhZvPjNrXPGh1PX/lsDZTE2iD6sXcIBRA2
BALZp0Uu4bMG/cUeGbFb0s64b8NaEHnNzhhkAIG93tCXnK8xrNvfKQZb2gvco+tq
zc+Z+aTF48deqzgXCq3zaDUBGqeP3J2JqmOHQVGZkZv7Qsax5trK5lq7avkdcQ39
vcpuykOTEJonVObJlpB6BT2sAKJuoKQFgszT7hP66sWKQTONeL6eE3L1tQ1jy0DR
bIWNPByhAWKq1xUfyrhcC3gMh5tC6ROx8c3QKuUA/RA8fAa3UaBqngCNRTODItho
FPsdOn7esYaQPV8K979/Xpu7DRdbOwQdL/Om0y5ftxNSo1Km+V/Y/zDrYG8oTyo9
cdWBKa06Ld+lqaJTX/mgdSZGTKY0yUdLQJ8HNFr5/SeVT39R6lO58SDP9h3Ag8B7
F0tQLz+9FISYScJKk4j7Cw==
-----END CERTIFICATE-----
