Certificate:
    Data:
        Version: 3 (0x2)
        Serial Number:
            39:62:0c:ae:d3:bb:20:c8:3a:73:7c:25:d9:92:e6:cd
    Signature Algorithm: sha512WithRSAEncryption
        Issuer: CN=ProcuraCA
        Validity
            Not Before: Nov 24 13:59:09 2022 GMT
            Not After : Nov 21 13:59:09 2032 GMT
        Subject: CN=telecamera33
        Subject Public Key Info:
            Public Key Algorithm: rsaEncryption
                Public-Key: (4096 bit)
                Modulus:
                    00:b2:3b:b6:3f:e4:f6:90:7f:b3:ff:64:4e:f4:a2:
                    48:89:86:3a:b5:a3:e1:df:73:05:a3:34:3b:d3:3c:
                    9e:9e:3f:36:9e:e0:32:8d:07:9d:a7:40:d5:61:2d:
                    95:11:b5:09:d3:79:42:43:42:c0:2e:d7:00:81:4a:
                    da:69:59:07:e7:01:ec:0e:16:f1:24:5f:08:0f:bb:
                    8e:5c:48:46:8a:87:b3:ed:77:83:79:35:a6:70:ef:
                    aa:28:3f:8d:2e:df:ca:54:27:86:4c:16:e4:14:68:
                    0a:3c:09:33:60:90:c6:0f:b3:d9:63:ca:88:7f:89:
                    0a:2d:c8:ae:28:80:51:b1:4f:dd:86:36:2d:bf:f1:
                    14:5f:35:f4:bb:63:bf:11:d5:63:92:f2:e8:fe:0c:
                    00:d0:dc:6a:01:92:d2:ec:3d:7d:7e:92:69:86:7c:
                    06:bc:04:2d:58:75:f5:39:2b:b2:3a:04:f6:3a:62:
                    3a:7c:fd:d1:90:93:34:d2:36:be:48:a3:7a:0c:d7:
                    f7:ae:11:98:f2:bc:e7:4a:67:2f:67:bb:fa:43:10:
                    5b:86:15:82:ac:84:28:df:0d:c3:75:95:b7:0c:33:
                    c9:31:94:3e:e9:84:cb:3c:46:f1:e4:ce:92:2e:51:
                    d9:23:ea:4d:fd:5e:d4:4f:e1:88:ff:09:f8:e2:6d:
                    1f:a8:31:6e:e5:b9:fb:9d:9d:34:71:7f:80:39:03:
                    94:d7:18:82:5d:7e:a6:91:41:6c:b3:ea:7a:51:fd:
                    22:55:d8:24:83:55:f3:32:de:44:24:a8:1f:27:a4:
                    51:e2:ad:dd:0f:ac:67:ae:73:dd:9c:e8:38:cf:8d:
                    7a:ab:01:8b:38:df:76:92:79:87:16:12:4a:df:f0:
                    36:81:eb:24:91:c9:69:cc:3a:0e:90:b1:6b:6f:a9:
                    9b:f4:86:2f:ff:38:fd:f7:7e:64:20:74:6a:07:33:
                    89:7f:af:7b:22:c4:59:54:77:36:6e:01:22:14:47:
                    64:0a:ce:4e:34:6b:5e:9a:d5:6e:77:bf:a5:eb:22:
                    ae:d2:af:bb:4c:d6:eb:cb:43:13:68:06:37:29:a2:
                    86:72:3d:e9:00:f0:bc:28:e8:91:39:91:fb:9e:be:
                    31:ef:b2:c8:e5:36:9d:09:9e:e8:59:f5:12:72:75:
                    0f:4e:0d:f8:b8:14:a6:6f:a5:ea:4c:14:85:86:bb:
                    2d:b1:e9:66:fe:bb:db:e5:06:9a:c8:7f:4b:c2:77:
                    9d:14:43:2b:c9:c2:ed:89:76:c0:73:c4:4e:1f:ac:
                    ac:a8:22:fb:3f:02:bb:59:09:aa:fc:4b:6a:be:d1:
                    e1:21:4d:e1:e3:53:9c:da:7c:16:0d:87:31:33:75:
                    6f:62:f1
                Exponent: 65537 (0x10001)
        X509v3 extensions:
            X509v3 Basic Constraints: 
                CA:FALSE
            X509v3 Subject Key Identifier: 
                05:D2:33:ED:A8:D7:AA:54:3D:18:16:F3:22:CB:A5:70:CA:BB:8C:93
            X509v3 Authority Key Identifier: 
                keyid:CA:1B:21:9C:1E:6A:07:17:12:46:0D:B8:1B:D0:EA:45:1C:F3:AF:1D
                DirName:/CN=ProcuraCA
                serial:B9:33:96:FE:37:82:C4:FE

            X509v3 Extended Key Usage: 
                TLS Web Client Authentication
            X509v3 Key Usage: 
                Digital Signature
    Signature Algorithm: sha512WithRSAEncryption
         33:52:66:ce:93:41:49:10:41:50:d0:e1:f8:49:11:68:f8:63:
         29:64:e1:19:5b:6f:f4:9e:f0:c3:c6:fb:5b:ed:eb:27:75:79:
         41:b8:7d:87:da:d0:81:58:45:27:b0:4d:73:c3:90:81:94:5a:
         55:c4:0c:81:4b:1c:29:f7:bf:c2:d9:49:9e:63:6a:a9:b9:45:
         77:80:98:a9:b7:4a:cc:8d:60:55:00:0b:68:e5:c8:5a:5e:93:
         fc:a5:12:79:a9:d9:6f:16:d9:7b:11:d2:f3:53:17:d2:72:3f:
         b9:38:f6:77:27:e4:0d:07:5b:33:a0:e0:9e:36:89:65:ff:62:
         6a:d8:36:b6:7b:7a:7c:12:d7:87:b2:7e:db:35:ff:5c:24:d0:
         83:57:f5:7f:28:af:41:17:c4:9b:64:9b:3f:b2:83:3c:48:28:
         92:11:31:a5:41:a8:c9:46:94:26:76:10:c3:4f:69:26:57:ab:
         81:e6:ae:b2:fe:c7:74:1e:d7:09:ae:39:61:0e:4f:2f:09:ae:
         00:28:1a:44:af:55:5d:4d:9c:b2:49:f9:b7:99:d5:3d:21:03:
         90:7e:77:70:f9:86:58:e3:45:4d:d3:f4:f3:60:c5:7b:e6:75:
         be:6b:56:ca:4c:bd:2a:35:25:8f:ba:33:33:48:e7:8a:67:eb:
         3a:8e:64:38:a9:04:f5:f3:62:9a:45:05:76:dd:65:c9:15:f9:
         8e:bb:a0:88:d2:de:d5:2d:f4:97:eb:1c:56:68:63:13:06:65:
         81:89:bc:70:45:20:0b:c9:af:a1:c7:ba:14:6c:0d:31:76:49:
         59:66:4a:3c:4f:41:10:59:3c:c8:a4:9a:15:44:46:9f:3b:59:
         99:39:bc:10:09:8d:6b:f7:58:b7:cc:74:7e:14:6d:4d:2a:90:
         16:ff:aa:d1:01:42:9d:0a:84:3a:b7:8b:44:71:d8:2e:2f:29:
         6b:06:05:2e:4d:97:90:26:63:fa:dd:1b:fa:b1:df:5d:b6:67:
         32:c7:43:bc:70:8d:b0:32:19:67:8e:81:1a:4c:de:7d:40:db:
         8a:ba:48:04:8d:09:99:14:cd:7d:60:2c:69:f7:48:ba:17:99:
         41:1e:24:e5:89:d1:99:8d:fc:5f:ce:2c:6f:45:ff:08:19:5f:
         de:17:dc:6e:96:1a:33:63:e0:22:e7:41:40:6a:72:90:bd:a0:
         74:73:16:3e:dc:14:51:6e:5c:b3:74:45:54:22:88:3a:b5:ae:
         0c:89:8e:b5:7e:19:8b:26:07:c9:91:7e:dc:07:a8:13:67:75:
         1e:b1:aa:71:74:fa:01:73:b9:fd:81:e7:0a:10:4c:49:c3:5f:
         30:73:1c:fe:e9:15:d3:63
-----BEGIN CERTIFICATE-----
MIIFSzCCAzOgAwIBAgIQOWIMrtO7IMg6c3wl2ZLmzTANBgkqhkiG9w0BAQ0FADAU
MRIwEAYDVQQDDAlQcm9jdXJhQ0EwHhcNMjIxMTI0MTM1OTA5WhcNMzIxMTIxMTM1
OTA5WjAXMRUwEwYDVQQDDAx0ZWxlY2FtZXJhMzMwggIiMA0GCSqGSIb3DQEBAQUA
A4ICDwAwggIKAoICAQCyO7Y/5PaQf7P/ZE70okiJhjq1o+HfcwWjNDvTPJ6ePzae
4DKNB52nQNVhLZURtQnTeUJDQsAu1wCBStppWQfnAewOFvEkXwgPu45cSEaKh7Pt
d4N5NaZw76ooP40u38pUJ4ZMFuQUaAo8CTNgkMYPs9ljyoh/iQotyK4ogFGxT92G
Ni2/8RRfNfS7Y78R1WOS8uj+DADQ3GoBktLsPX1+kmmGfAa8BC1YdfU5K7I6BPY6
Yjp8/dGQkzTSNr5Io3oM1/euEZjyvOdKZy9nu/pDEFuGFYKshCjfDcN1lbcMM8kx
lD7phMs8RvHkzpIuUdkj6k39XtRP4Yj/CfjibR+oMW7lufudnTRxf4A5A5TXGIJd
fqaRQWyz6npR/SJV2CSDVfMy3kQkqB8npFHird0PrGeuc92c6DjPjXqrAYs433aS
eYcWEkrf8DaB6ySRyWnMOg6QsWtvqZv0hi//OP33fmQgdGoHM4l/r3sixFlUdzZu
ASIUR2QKzk40a16a1W53v6XrIq7Sr7tM1uvLQxNoBjcpooZyPekA8Lwo6JE5kfue
vjHvssjlNp0JnuhZ9RJydQ9ODfi4FKZvpepMFIWGuy2x6Wb+u9vlBprIf0vCd50U
QyvJwu2JdsBzxE4frKyoIvs/ArtZCar8S2q+0eEhTeHjU5zafBYNhzEzdW9i8QID
AQABo4GVMIGSMAkGA1UdEwQCMAAwHQYDVR0OBBYEFAXSM+2o16pUPRgW8yLLpXDK
u4yTMEQGA1UdIwQ9MDuAFMobIZweagcXEkYNuBvQ6kUc868doRikFjAUMRIwEAYD
VQQDDAlQcm9jdXJhQ0GCCQC5M5b+N4LE/jATBgNVHSUEDDAKBggrBgEFBQcDAjAL
BgNVHQ8EBAMCB4AwDQYJKoZIhvcNAQENBQADggIBADNSZs6TQUkQQVDQ4fhJEWj4
Yylk4Rlbb/Se8MPG+1vt6yd1eUG4fYfa0IFYRSewTXPDkIGUWlXEDIFLHCn3v8LZ
SZ5jaqm5RXeAmKm3SsyNYFUAC2jlyFpek/ylEnmp2W8W2XsR0vNTF9JyP7k49ncn
5A0HWzOg4J42iWX/YmrYNrZ7enwS14eyfts1/1wk0INX9X8or0EXxJtkmz+ygzxI
KJIRMaVBqMlGlCZ2EMNPaSZXq4HmrrL+x3Qe1wmuOWEOTy8JrgAoGkSvVV1NnLJJ
+beZ1T0hA5B+d3D5hljjRU3T9PNgxXvmdb5rVspMvSo1JY+6MzNI54pn6zqOZDip
BPXzYppFBXbdZckV+Y67oIjS3tUt9JfrHFZoYxMGZYGJvHBFIAvJr6HHuhRsDTF2
SVlmSjxPQRBZPMikmhVERp87WZk5vBAJjWv3WLfMdH4UbU0qkBb/qtEBQp0KhDq3
i0Rx2C4vKWsGBS5Nl5AmY/rdG/qx3122ZzLHQ7xwjbAyGWeOgRpM3n1A24q6SASN
CZkUzX1gLGn3SLoXmUEeJOWJ0ZmN/F/OLG9F/wgZX94X3G6WGjNj4CLnQUBqcpC9
oHRzFj7cFFFuXLN0RVQiiDq1rgyJjrV+GYsmB8mRftwHqBNndR6xqnF0+gFzuf2B
5woQTEnDXzBzHP7pFdNj
-----END CERTIFICATE-----
