Certificate:
    Data:
        Version: 3 (0x2)
        Serial Number:
            a7:32:ee:bf:89:0e:75:8f:41:f9:78:42:a6:af:49:fa
    Signature Algorithm: sha512WithRSAEncryption
        Issuer: CN=ProcuraCA
        Validity
            Not Before: Nov 24 14:01:37 2022 GMT
            Not After : Nov 21 14:01:37 2032 GMT
        Subject: CN=telecamera47
        Subject Public Key Info:
            Public Key Algorithm: rsaEncryption
                Public-Key: (4096 bit)
                Modulus:
                    00:cc:a6:8f:17:c1:6b:6d:0f:0d:63:c2:00:53:57:
                    2b:84:fc:cb:b8:5b:5e:40:1d:bf:7e:af:b8:63:09:
                    76:a3:cf:88:fc:a4:5f:6b:7a:38:c6:91:20:18:bf:
                    e2:f5:e8:ff:7d:08:25:82:d2:76:99:3b:f5:2a:24:
                    28:f1:e7:18:6b:fd:b9:94:05:9e:70:db:04:93:70:
                    c5:c7:6f:02:35:ee:ce:9e:f1:07:e0:30:56:51:c4:
                    2d:06:25:88:6a:6f:2e:35:9c:16:de:59:0e:ef:69:
                    72:cb:b3:8f:59:db:61:97:8e:7a:60:66:af:8f:c2:
                    d2:ca:10:58:84:a4:2e:1c:c4:e1:9b:d9:16:66:46:
                    76:ad:1b:bd:e9:b9:be:c1:6d:75:33:4f:b7:91:ca:
                    2c:9a:15:d0:66:3a:e8:a8:61:0b:c1:4f:13:1e:36:
                    92:65:18:48:9f:c3:8e:89:10:63:e0:fa:cc:c7:5d:
                    7a:a1:14:df:2c:16:3a:b3:41:df:ad:33:56:ce:ba:
                    26:e1:b2:83:ce:91:48:ea:ca:e1:f9:64:97:64:59:
                    d4:55:ce:e0:b4:2d:c2:74:af:6f:35:ff:57:bf:56:
                    33:4e:ce:a8:1e:c6:87:68:bc:87:fb:23:f4:17:73:
                    b9:92:f7:25:78:46:2c:8f:1f:ef:e3:0f:90:df:f7:
                    c2:e5:72:4f:ef:d0:e5:5a:80:f8:ab:9e:52:06:a7:
                    6b:17:e9:8d:ac:cc:e8:eb:94:32:d7:48:bc:6d:b5:
                    64:c6:17:1f:43:3e:46:cf:e8:69:f3:cf:e6:7c:2b:
                    e6:97:bc:4a:30:0e:ce:09:50:41:4a:f4:6f:42:4d:
                    8a:dd:7b:dd:dc:8f:b7:da:f8:24:6e:54:f7:48:c2:
                    b0:c9:4e:f1:0b:a7:04:44:eb:d1:f3:55:c8:f8:e9:
                    aa:b0:6b:8c:f1:6a:ee:15:17:b3:c3:eb:df:1b:c3:
                    28:31:48:f0:5f:ac:d7:d4:27:e7:29:ba:0f:e7:8d:
                    1c:8f:02:e9:2b:e7:48:27:d7:58:97:23:1f:d7:94:
                    2e:8c:7f:63:9c:8a:51:c8:46:48:a1:80:36:b3:d7:
                    0b:b5:fd:2f:21:37:d6:10:be:40:e6:ba:9b:cc:f6:
                    c0:52:a6:a2:87:84:9e:02:0b:84:ed:89:78:a0:34:
                    fd:eb:e1:08:7c:0b:3e:5b:ba:b1:73:63:5e:51:89:
                    67:8b:c2:41:d4:d3:18:03:6e:87:10:89:25:c7:ac:
                    73:cd:0e:a8:95:b4:5b:8b:db:6d:64:b9:99:3b:05:
                    eb:a6:5d:bd:c9:e7:b6:e2:b1:ab:29:8f:05:df:0c:
                    6c:d1:fc:16:83:31:a0:4d:3e:2a:3c:b8:b9:3a:28:
                    ac:28:bf
                Exponent: 65537 (0x10001)
        X509v3 extensions:
            X509v3 Basic Constraints: 
                CA:FALSE
            X509v3 Subject Key Identifier: 
                D3:E9:EA:3A:C3:EF:78:90:41:70:D3:DA:1A:FA:9C:E3:80:A4:D6:DE
            X509v3 Authority Key Identifier: 
                keyid:CA:1B:21:9C:1E:6A:07:17:12:46:0D:B8:1B:D0:EA:45:1C:F3:AF:1D
                DirName:/CN=ProcuraCA
                serial:B9:33:96:FE:37:82:C4:FE

            X509v3 Extended Key Usage: 
                TLS Web Client Authentication
            X509v3 Key Usage: 
                Digital Signature
    Signature Algorithm: sha512WithRSAEncryption
         03:ba:06:59:16:47:ea:88:3d:14:3e:0b:c0:06:a5:52:8f:a6:
         ed:ea:71:a4:11:29:17:57:82:98:d7:c0:53:32:26:7c:05:88:
         f3:a3:34:2b:f4:4e:72:da:5a:3c:20:90:e2:97:5b:f7:2a:6b:
         7c:fe:60:fd:2d:36:08:9b:43:aa:91:f7:51:1b:11:5c:68:5d:
         c5:53:73:85:f1:8d:f7:1a:ff:75:44:77:10:0e:d6:e9:1a:54:
         57:67:a9:f1:15:5f:bb:55:1b:40:a4:53:bd:6f:f0:6c:b8:3c:
         d8:12:0a:6f:71:d4:ba:30:ca:05:98:73:45:c3:fc:5b:f4:06:
         8e:07:86:8f:58:8d:f1:c9:67:42:8a:ca:d2:c0:52:39:3d:12:
         be:8a:82:60:2d:1e:88:dc:20:50:43:8b:85:72:52:ca:fb:78:
         e7:aa:8c:9e:1a:b4:c2:3f:1c:8f:ab:1d:f4:11:51:42:cc:57:
         10:9f:56:a2:9e:83:bc:60:55:3b:b6:1d:21:66:9a:c3:21:33:
         6e:62:be:71:82:bb:31:5a:bb:30:de:fe:7f:0a:3e:c3:df:3e:
         64:1c:a2:c8:48:c1:58:ab:03:42:0e:0f:ed:f8:8e:d7:ba:ce:
         b6:20:f2:a0:e1:c5:fa:b6:44:28:3d:3a:05:d8:7a:79:6d:5a:
         3e:a0:f5:ee:fe:ce:bc:eb:41:f3:63:9f:61:c2:0f:e2:3b:c9:
         f3:5b:58:d7:8e:31:ef:49:16:29:e0:e3:fa:c2:04:a7:83:c9:
         36:dc:57:14:da:55:19:c8:1a:12:7b:4f:45:e8:02:70:24:db:
         6a:b5:30:cb:4e:7d:13:41:e5:ef:7e:67:92:8e:88:19:60:24:
         66:7c:bc:7a:55:37:ed:c0:f2:de:f6:39:28:1c:ad:0d:c9:aa:
         c0:59:d7:29:72:be:44:c9:3d:ed:7a:f8:80:d1:c0:c2:21:5e:
         f2:9d:98:a4:c7:41:76:13:29:0b:b4:77:26:5b:b6:b8:27:70:
         34:53:af:54:63:1a:08:85:c6:83:17:8f:5f:f8:78:4f:db:ee:
         54:5b:ba:e6:10:b7:1b:77:68:4f:a4:e9:5e:3c:bb:f9:76:6e:
         fe:91:b4:de:b3:1c:be:a9:9a:62:88:3d:6b:16:b5:15:71:61:
         fe:97:1b:cd:8a:aa:ca:b6:fc:ba:08:11:e2:4f:4e:26:44:63:
         cc:f4:43:11:63:21:3a:18:b9:a6:1a:3e:a8:70:14:41:cf:70:
         5f:fe:4c:77:85:87:e6:95:7a:aa:74:2c:f4:71:8d:66:14:ed:
         16:8e:5d:06:39:9c:fc:75:39:8c:04:dc:1b:76:e5:5c:e4:9e:
         3f:6e:df:87:3c:33:a2:96
-----BEGIN CERTIFICATE-----
MIIFTDCCAzSgAwIBAgIRAKcy7r+JDnWPQfl4QqavSfowDQYJKoZIhvcNAQENBQAw
FDESMBAGA1UEAwwJUHJvY3VyYUNBMB4XDTIyMTEyNDE0MDEzN1oXDTMyMTEyMTE0
MDEzN1owFzEVMBMGA1UEAwwMdGVsZWNhbWVyYTQ3MIICIjANBgkqhkiG9w0BAQEF
AAOCAg8AMIICCgKCAgEAzKaPF8FrbQ8NY8IAU1crhPzLuFteQB2/fq+4Ywl2o8+I
/KRfa3o4xpEgGL/i9ej/fQglgtJ2mTv1KiQo8ecYa/25lAWecNsEk3DFx28CNe7O
nvEH4DBWUcQtBiWIam8uNZwW3lkO72lyy7OPWdthl456YGavj8LSyhBYhKQuHMTh
m9kWZkZ2rRu96bm+wW11M0+3kcosmhXQZjroqGELwU8THjaSZRhIn8OOiRBj4PrM
x116oRTfLBY6s0HfrTNWzrom4bKDzpFI6srh+WSXZFnUVc7gtC3CdK9vNf9Xv1Yz
Ts6oHsaHaLyH+yP0F3O5kvcleEYsjx/v4w+Q3/fC5XJP79DlWoD4q55SBqdrF+mN
rMzo65Qy10i8bbVkxhcfQz5Gz+hp88/mfCvml7xKMA7OCVBBSvRvQk2K3Xvd3I+3
2vgkblT3SMKwyU7xC6cEROvR81XI+OmqsGuM8WruFRezw+vfG8MoMUjwX6zX1Cfn
KboP540cjwLpK+dIJ9dYlyMf15QujH9jnIpRyEZIoYA2s9cLtf0vITfWEL5A5rqb
zPbAUqaih4SeAguE7Yl4oDT96+EIfAs+W7qxc2NeUYlni8JB1NMYA26HEIklx6xz
zQ6olbRbi9ttZLmZOwXrpl29yee24rGrKY8F3wxs0fwWgzGgTT4qPLi5OiisKL8C
AwEAAaOBlTCBkjAJBgNVHRMEAjAAMB0GA1UdDgQWBBTT6eo6w+94kEFw09oa+pzj
gKTW3jBEBgNVHSMEPTA7gBTKGyGcHmoHFxJGDbgb0OpFHPOvHaEYpBYwFDESMBAG
A1UEAwwJUHJvY3VyYUNBggkAuTOW/jeCxP4wEwYDVR0lBAwwCgYIKwYBBQUHAwIw
CwYDVR0PBAQDAgeAMA0GCSqGSIb3DQEBDQUAA4ICAQADugZZFkfqiD0UPgvABqVS
j6bt6nGkESkXV4KY18BTMiZ8BYjzozQr9E5y2lo8IJDil1v3Kmt8/mD9LTYIm0Oq
kfdRGxFcaF3FU3OF8Y33Gv91RHcQDtbpGlRXZ6nxFV+7VRtApFO9b/BsuDzYEgpv
cdS6MMoFmHNFw/xb9AaOB4aPWI3xyWdCisrSwFI5PRK+ioJgLR6I3CBQQ4uFclLK
+3jnqoyeGrTCPxyPqx30EVFCzFcQn1ainoO8YFU7th0hZprDITNuYr5xgrsxWrsw
3v5/Cj7D3z5kHKLISMFYqwNCDg/t+I7Xus62IPKg4cX6tkQoPToF2Hp5bVo+oPXu
/s6860HzY59hwg/iO8nzW1jXjjHvSRYp4OP6wgSng8k23FcU2lUZyBoSe09F6AJw
JNtqtTDLTn0TQeXvfmeSjogZYCRmfLx6VTftwPLe9jkoHK0NyarAWdcpcr5EyT3t
eviA0cDCIV7ynZikx0F2EykLtHcmW7a4J3A0U69UYxoIhcaDF49f+HhP2+5UW7rm
ELcbd2hPpOlePLv5dm7+kbTesxy+qZpiiD1rFrUVcWH+lxvNiqrKtvy6CBHiT04m
RGPM9EMRYyE6GLmmGj6ocBRBz3Bf/kx3hYfmlXqqdCz0cY1mFO0Wjl0GOZz8dTmM
BNwbduVc5J4/bt+HPDOilg==
-----END CERTIFICATE-----
